	.file	"timing.cpp"
	.text
	.section	.rodata
	.type	_ZStL19piecewise_construct, @object
	.size	_ZStL19piecewise_construct, 1
_ZStL19piecewise_construct:
	.zero	1
	.section	.text._ZnwmPv,"axG",@progbits,_ZnwmPv,comdat
	.weak	_ZnwmPv
	.type	_ZnwmPv, @function
_ZnwmPv:
.LFB364:
	.cfi_startproc
	endbr64
	pushq	%rbp
	.cfi_def_cfa_offset 16
	.cfi_offset 6, -16
	movq	%rsp, %rbp
	.cfi_def_cfa_register 6
	movq	%rdi, -8(%rbp)
	movq	%rsi, -16(%rbp)
	movq	-16(%rbp), %rax
	popq	%rbp
	.cfi_def_cfa 7, 8
	ret
	.cfi_endproc
.LFE364:
	.size	_ZnwmPv, .-_ZnwmPv
	.local	_ZStL8__ioinit
	.comm	_ZStL8__ioinit,1,1
	.section	.text._ZNSt12_Vector_baseIjSaIjEE12_Vector_implD2Ev,"axG",@progbits,_ZNSt12_Vector_baseIjSaIjEE12_Vector_implD5Ev,comdat
	.align 2
	.weak	_ZNSt12_Vector_baseIjSaIjEE12_Vector_implD2Ev
	.type	_ZNSt12_Vector_baseIjSaIjEE12_Vector_implD2Ev, @function
_ZNSt12_Vector_baseIjSaIjEE12_Vector_implD2Ev:
.LFB2846:
	.cfi_startproc
	endbr64
	pushq	%rbp
	.cfi_def_cfa_offset 16
	.cfi_offset 6, -16
	movq	%rsp, %rbp
	.cfi_def_cfa_register 6
	subq	$16, %rsp
	movq	%rdi, -8(%rbp)
	movq	-8(%rbp), %rax
	movq	%rax, %rdi
	call	_ZNSaIjED2Ev
	nop
	leave
	.cfi_def_cfa 7, 8
	ret
	.cfi_endproc
.LFE2846:
	.size	_ZNSt12_Vector_baseIjSaIjEE12_Vector_implD2Ev, .-_ZNSt12_Vector_baseIjSaIjEE12_Vector_implD2Ev
	.weak	_ZNSt12_Vector_baseIjSaIjEE12_Vector_implD1Ev
	.set	_ZNSt12_Vector_baseIjSaIjEE12_Vector_implD1Ev,_ZNSt12_Vector_baseIjSaIjEE12_Vector_implD2Ev
	.section	.text._ZNSt12_Vector_baseIjSaIjEEC2Ev,"axG",@progbits,_ZNSt12_Vector_baseIjSaIjEEC5Ev,comdat
	.align 2
	.weak	_ZNSt12_Vector_baseIjSaIjEEC2Ev
	.type	_ZNSt12_Vector_baseIjSaIjEEC2Ev, @function
_ZNSt12_Vector_baseIjSaIjEEC2Ev:
.LFB2848:
	.cfi_startproc
	endbr64
	pushq	%rbp
	.cfi_def_cfa_offset 16
	.cfi_offset 6, -16
	movq	%rsp, %rbp
	.cfi_def_cfa_register 6
	subq	$16, %rsp
	movq	%rdi, -8(%rbp)
	movq	-8(%rbp), %rax
	movq	%rax, %rdi
	call	_ZNSt12_Vector_baseIjSaIjEE12_Vector_implC1Ev
	nop
	leave
	.cfi_def_cfa 7, 8
	ret
	.cfi_endproc
.LFE2848:
	.size	_ZNSt12_Vector_baseIjSaIjEEC2Ev, .-_ZNSt12_Vector_baseIjSaIjEEC2Ev
	.weak	_ZNSt12_Vector_baseIjSaIjEEC1Ev
	.set	_ZNSt12_Vector_baseIjSaIjEEC1Ev,_ZNSt12_Vector_baseIjSaIjEEC2Ev
	.section	.text._ZNSt6vectorIjSaIjEEC2Ev,"axG",@progbits,_ZNSt6vectorIjSaIjEEC5Ev,comdat
	.align 2
	.weak	_ZNSt6vectorIjSaIjEEC2Ev
	.type	_ZNSt6vectorIjSaIjEEC2Ev, @function
_ZNSt6vectorIjSaIjEEC2Ev:
.LFB2850:
	.cfi_startproc
	endbr64
	pushq	%rbp
	.cfi_def_cfa_offset 16
	.cfi_offset 6, -16
	movq	%rsp, %rbp
	.cfi_def_cfa_register 6
	subq	$16, %rsp
	movq	%rdi, -8(%rbp)
	movq	-8(%rbp), %rax
	movq	%rax, %rdi
	call	_ZNSt12_Vector_baseIjSaIjEEC2Ev
	nop
	leave
	.cfi_def_cfa 7, 8
	ret
	.cfi_endproc
.LFE2850:
	.size	_ZNSt6vectorIjSaIjEEC2Ev, .-_ZNSt6vectorIjSaIjEEC2Ev
	.weak	_ZNSt6vectorIjSaIjEEC1Ev
	.set	_ZNSt6vectorIjSaIjEEC1Ev,_ZNSt6vectorIjSaIjEEC2Ev
	.section	.text._ZNKSt6chrono8durationIlSt5ratioILl1ELl1000000000EEE5countEv,"axG",@progbits,_ZNKSt6chrono8durationIlSt5ratioILl1ELl1000000000EEE5countEv,comdat
	.align 2
	.weak	_ZNKSt6chrono8durationIlSt5ratioILl1ELl1000000000EEE5countEv
	.type	_ZNKSt6chrono8durationIlSt5ratioILl1ELl1000000000EEE5countEv, @function
_ZNKSt6chrono8durationIlSt5ratioILl1ELl1000000000EEE5countEv:
.LFB3234:
	.cfi_startproc
	endbr64
	pushq	%rbp
	.cfi_def_cfa_offset 16
	.cfi_offset 6, -16
	movq	%rsp, %rbp
	.cfi_def_cfa_register 6
	movq	%rdi, -8(%rbp)
	movq	-8(%rbp), %rax
	movq	(%rax), %rax
	popq	%rbp
	.cfi_def_cfa 7, 8
	ret
	.cfi_endproc
.LFE3234:
	.size	_ZNKSt6chrono8durationIlSt5ratioILl1ELl1000000000EEE5countEv, .-_ZNKSt6chrono8durationIlSt5ratioILl1ELl1000000000EEE5countEv
	.section	.text._ZNSt6chrono8durationIlSt5ratioILl1ELl1000000000EEEC1IlvEERKT_,"axG",@progbits,_ZNSt6chrono8durationIlSt5ratioILl1ELl1000000000EEEC1IlvEERKT_,comdat
	.align 2
	.weak	_ZNSt6chrono8durationIlSt5ratioILl1ELl1000000000EEEC1IlvEERKT_
	.type	_ZNSt6chrono8durationIlSt5ratioILl1ELl1000000000EEEC1IlvEERKT_, @function
_ZNSt6chrono8durationIlSt5ratioILl1ELl1000000000EEEC1IlvEERKT_:
.LFB3239:
	.cfi_startproc
	endbr64
	pushq	%rbp
	.cfi_def_cfa_offset 16
	.cfi_offset 6, -16
	movq	%rsp, %rbp
	.cfi_def_cfa_register 6
	movq	%rdi, -8(%rbp)
	movq	%rsi, -16(%rbp)
	movq	-16(%rbp), %rax
	movq	(%rax), %rdx
	movq	-8(%rbp), %rax
	movq	%rdx, (%rax)
	nop
	popq	%rbp
	.cfi_def_cfa 7, 8
	ret
	.cfi_endproc
.LFE3239:
	.size	_ZNSt6chrono8durationIlSt5ratioILl1ELl1000000000EEEC1IlvEERKT_, .-_ZNSt6chrono8durationIlSt5ratioILl1ELl1000000000EEEC1IlvEERKT_
	.section	.rodata
	.align 4
	.type	_ZL3one, @object
	.size	_ZL3one, 4
_ZL3one:
	.long	1
	.align 4
	.type	_ZL7max_pow, @object
	.size	_ZL7max_pow, 4
_ZL7max_pow:
	.long	16
	.align 8
	.type	_ZL7max_int, @object
	.size	_ZL7max_int, 8
_ZL7max_int:
	.quad	65536
	.align 8
	.type	_ZL8max_mask, @object
	.size	_ZL8max_mask, 8
_ZL8max_mask:
	.quad	65535
	.section	.text._ZN6BigInt8additionERKS_,"axG",@progbits,_ZN6BigInt8additionERKS_,comdat
	.align 2
	.weak	_ZN6BigInt8additionERKS_
	.type	_ZN6BigInt8additionERKS_, @function
_ZN6BigInt8additionERKS_:
.LFB3260:
	.cfi_startproc
	endbr64
	pushq	%rbp
	.cfi_def_cfa_offset 16
	.cfi_offset 6, -16
	movq	%rsp, %rbp
	.cfi_def_cfa_register 6
	pushq	%rbx
	subq	$56, %rsp
	.cfi_offset 3, -24
	movq	%rdi, -56(%rbp)
	movq	%rsi, -64(%rbp)
	movq	%fs:40, %rax
	movq	%rax, -24(%rbp)
	xorl	%eax, %eax
	movl	$0, -32(%rbp)
	movq	-56(%rbp), %rax
	movl	4(%rax), %edx
	movq	-64(%rbp), %rax
	movl	4(%rax), %eax
	cmpl	%eax, %edx
	jl	.L10
	movl	$0, -28(%rbp)
.L12:
	movq	-64(%rbp), %rax
	movl	4(%rax), %eax
	cmpl	%eax, -28(%rbp)
	jge	.L11
	movl	-28(%rbp), %eax
	cltq
	movq	-56(%rbp), %rdx
	addq	$8, %rdx
	movq	%rax, %rsi
	movq	%rdx, %rdi
	call	_ZNSt6vectorIjSaIjEEixEm
	movl	(%rax), %ebx
	movl	-28(%rbp), %eax
	cltq
	movq	-64(%rbp), %rdx
	addq	$8, %rdx
	movq	%rax, %rsi
	movq	%rdx, %rdi
	call	_ZNKSt6vectorIjSaIjEEixEm
	movl	(%rax), %eax
	addl	%ebx, %eax
	addl	%eax, -32(%rbp)
	movl	-28(%rbp), %eax
	cltq
	movq	-56(%rbp), %rdx
	addq	$8, %rdx
	movq	%rax, %rsi
	movq	%rdx, %rdi
	call	_ZNSt6vectorIjSaIjEEixEm
	movl	-32(%rbp), %edx
	movzwl	%dx, %edx
	movl	%edx, (%rax)
	shrl	$16, -32(%rbp)
	addl	$1, -28(%rbp)
	jmp	.L12
.L11:
	movq	-56(%rbp), %rax
	movl	4(%rax), %eax
	cmpl	%eax, -28(%rbp)
	jge	.L13
	movl	-28(%rbp), %eax
	cltq
	movq	-56(%rbp), %rdx
	addq	$8, %rdx
	movq	%rax, %rsi
	movq	%rdx, %rdi
	call	_ZNSt6vectorIjSaIjEEixEm
	movl	(%rax), %eax
	addl	%eax, -32(%rbp)
	movl	-28(%rbp), %eax
	cltq
	movq	-56(%rbp), %rdx
	addq	$8, %rdx
	movq	%rax, %rsi
	movq	%rdx, %rdi
	call	_ZNSt6vectorIjSaIjEEixEm
	movl	-32(%rbp), %edx
	movzwl	%dx, %edx
	movl	%edx, (%rax)
	shrl	$16, -32(%rbp)
	cmpl	$0, -32(%rbp)
	je	.L20
	addl	$1, -28(%rbp)
	jmp	.L11
.L20:
	nop
.L13:
	cmpl	$0, -32(%rbp)
	je	.L21
	movl	-28(%rbp), %eax
	cltq
	movq	-56(%rbp), %rdx
	addq	$8, %rdx
	movq	%rax, %rsi
	movq	%rdx, %rdi
	call	_ZNSt6vectorIjSaIjEEixEm
	movl	-32(%rbp), %edx
	movl	%edx, (%rax)
	movq	-56(%rbp), %rax
	movl	4(%rax), %eax
	leal	1(%rax), %edx
	movq	-56(%rbp), %rax
	movl	%edx, 4(%rax)
	jmp	.L21
.L10:
	movl	$0, -28(%rbp)
.L17:
	movq	-56(%rbp), %rax
	movl	4(%rax), %eax
	cmpl	%eax, -28(%rbp)
	jge	.L16
	movl	-28(%rbp), %eax
	cltq
	movq	-56(%rbp), %rdx
	addq	$8, %rdx
	movq	%rax, %rsi
	movq	%rdx, %rdi
	call	_ZNSt6vectorIjSaIjEEixEm
	movl	(%rax), %ebx
	movl	-28(%rbp), %eax
	cltq
	movq	-64(%rbp), %rdx
	addq	$8, %rdx
	movq	%rax, %rsi
	movq	%rdx, %rdi
	call	_ZNKSt6vectorIjSaIjEEixEm
	movl	(%rax), %eax
	addl	%ebx, %eax
	addl	%eax, -32(%rbp)
	movl	-28(%rbp), %eax
	cltq
	movq	-56(%rbp), %rdx
	addq	$8, %rdx
	movq	%rax, %rsi
	movq	%rdx, %rdi
	call	_ZNSt6vectorIjSaIjEEixEm
	movl	-32(%rbp), %edx
	movzwl	%dx, %edx
	movl	%edx, (%rax)
	shrl	$16, -32(%rbp)
	addl	$1, -28(%rbp)
	jmp	.L17
.L16:
	movq	-64(%rbp), %rax
	movl	4(%rax), %eax
	cmpl	%eax, -28(%rbp)
	jge	.L18
	movl	-28(%rbp), %eax
	cltq
	movq	-64(%rbp), %rdx
	addq	$8, %rdx
	movq	%rax, %rsi
	movq	%rdx, %rdi
	call	_ZNKSt6vectorIjSaIjEEixEm
	movl	(%rax), %eax
	addl	%eax, -32(%rbp)
	movq	-56(%rbp), %rax
	leaq	8(%rax), %rdx
	movl	-32(%rbp), %eax
	movzwl	%ax, %eax
	movl	%eax, -36(%rbp)
	leaq	-36(%rbp), %rax
	movq	%rax, %rsi
	movq	%rdx, %rdi
	call	_ZNSt6vectorIjSaIjEE9push_backEOj
	shrl	$16, -32(%rbp)
	addl	$1, -28(%rbp)
	jmp	.L16
.L18:
	movq	-64(%rbp), %rax
	movl	4(%rax), %edx
	movq	-56(%rbp), %rax
	movl	%edx, 4(%rax)
	cmpl	$0, -32(%rbp)
	je	.L21
	movl	-28(%rbp), %eax
	cltq
	movq	-56(%rbp), %rdx
	addq	$8, %rdx
	movq	%rax, %rsi
	movq	%rdx, %rdi
	call	_ZNSt6vectorIjSaIjEEixEm
	movl	-32(%rbp), %edx
	movl	%edx, (%rax)
	movq	-56(%rbp), %rax
	movl	4(%rax), %eax
	leal	1(%rax), %edx
	movq	-56(%rbp), %rax
	movl	%edx, 4(%rax)
.L21:
	nop
	movq	-24(%rbp), %rax
	xorq	%fs:40, %rax
	je	.L19
	call	__stack_chk_fail@PLT
.L19:
	addq	$56, %rsp
	popq	%rbx
	popq	%rbp
	.cfi_def_cfa 7, 8
	ret
	.cfi_endproc
.LFE3260:
	.size	_ZN6BigInt8additionERKS_, .-_ZN6BigInt8additionERKS_
	.section	.text._ZNSt12_Vector_baseI6BigIntSaIS0_EE12_Vector_implD2Ev,"axG",@progbits,_ZNSt12_Vector_baseI6BigIntSaIS0_EE12_Vector_implD5Ev,comdat
	.align 2
	.weak	_ZNSt12_Vector_baseI6BigIntSaIS0_EE12_Vector_implD2Ev
	.type	_ZNSt12_Vector_baseI6BigIntSaIS0_EE12_Vector_implD2Ev, @function
_ZNSt12_Vector_baseI6BigIntSaIS0_EE12_Vector_implD2Ev:
.LFB3265:
	.cfi_startproc
	endbr64
	pushq	%rbp
	.cfi_def_cfa_offset 16
	.cfi_offset 6, -16
	movq	%rsp, %rbp
	.cfi_def_cfa_register 6
	subq	$16, %rsp
	movq	%rdi, -8(%rbp)
	movq	-8(%rbp), %rax
	movq	%rax, %rdi
	call	_ZNSaI6BigIntED2Ev
	nop
	leave
	.cfi_def_cfa 7, 8
	ret
	.cfi_endproc
.LFE3265:
	.size	_ZNSt12_Vector_baseI6BigIntSaIS0_EE12_Vector_implD2Ev, .-_ZNSt12_Vector_baseI6BigIntSaIS0_EE12_Vector_implD2Ev
	.weak	_ZNSt12_Vector_baseI6BigIntSaIS0_EE12_Vector_implD1Ev
	.set	_ZNSt12_Vector_baseI6BigIntSaIS0_EE12_Vector_implD1Ev,_ZNSt12_Vector_baseI6BigIntSaIS0_EE12_Vector_implD2Ev
	.section	.text._ZNSt12_Vector_baseI6BigIntSaIS0_EEC2Ev,"axG",@progbits,_ZNSt12_Vector_baseI6BigIntSaIS0_EEC5Ev,comdat
	.align 2
	.weak	_ZNSt12_Vector_baseI6BigIntSaIS0_EEC2Ev
	.type	_ZNSt12_Vector_baseI6BigIntSaIS0_EEC2Ev, @function
_ZNSt12_Vector_baseI6BigIntSaIS0_EEC2Ev:
.LFB3267:
	.cfi_startproc
	endbr64
	pushq	%rbp
	.cfi_def_cfa_offset 16
	.cfi_offset 6, -16
	movq	%rsp, %rbp
	.cfi_def_cfa_register 6
	subq	$16, %rsp
	movq	%rdi, -8(%rbp)
	movq	-8(%rbp), %rax
	movq	%rax, %rdi
	call	_ZNSt12_Vector_baseI6BigIntSaIS0_EE12_Vector_implC1Ev
	nop
	leave
	.cfi_def_cfa 7, 8
	ret
	.cfi_endproc
.LFE3267:
	.size	_ZNSt12_Vector_baseI6BigIntSaIS0_EEC2Ev, .-_ZNSt12_Vector_baseI6BigIntSaIS0_EEC2Ev
	.weak	_ZNSt12_Vector_baseI6BigIntSaIS0_EEC1Ev
	.set	_ZNSt12_Vector_baseI6BigIntSaIS0_EEC1Ev,_ZNSt12_Vector_baseI6BigIntSaIS0_EEC2Ev
	.section	.text._ZNSt6vectorI6BigIntSaIS0_EEC2Ev,"axG",@progbits,_ZNSt6vectorI6BigIntSaIS0_EEC5Ev,comdat
	.align 2
	.weak	_ZNSt6vectorI6BigIntSaIS0_EEC2Ev
	.type	_ZNSt6vectorI6BigIntSaIS0_EEC2Ev, @function
_ZNSt6vectorI6BigIntSaIS0_EEC2Ev:
.LFB3269:
	.cfi_startproc
	endbr64
	pushq	%rbp
	.cfi_def_cfa_offset 16
	.cfi_offset 6, -16
	movq	%rsp, %rbp
	.cfi_def_cfa_register 6
	subq	$16, %rsp
	movq	%rdi, -8(%rbp)
	movq	-8(%rbp), %rax
	movq	%rax, %rdi
	call	_ZNSt12_Vector_baseI6BigIntSaIS0_EEC2Ev
	nop
	leave
	.cfi_def_cfa 7, 8
	ret
	.cfi_endproc
.LFE3269:
	.size	_ZNSt6vectorI6BigIntSaIS0_EEC2Ev, .-_ZNSt6vectorI6BigIntSaIS0_EEC2Ev
	.weak	_ZNSt6vectorI6BigIntSaIS0_EEC1Ev
	.set	_ZNSt6vectorI6BigIntSaIS0_EEC1Ev,_ZNSt6vectorI6BigIntSaIS0_EEC2Ev
	.section	.text._ZN6BigIntD2Ev,"axG",@progbits,_ZN6BigIntD5Ev,comdat
	.align 2
	.weak	_ZN6BigIntD2Ev
	.type	_ZN6BigIntD2Ev, @function
_ZN6BigIntD2Ev:
.LFB3272:
	.cfi_startproc
	endbr64
	pushq	%rbp
	.cfi_def_cfa_offset 16
	.cfi_offset 6, -16
	movq	%rsp, %rbp
	.cfi_def_cfa_register 6
	subq	$16, %rsp
	movq	%rdi, -8(%rbp)
	movq	-8(%rbp), %rax
	addq	$8, %rax
	movq	%rax, %rdi
	call	_ZNSt6vectorIjSaIjEED1Ev
	nop
	leave
	.cfi_def_cfa 7, 8
	ret
	.cfi_endproc
.LFE3272:
	.size	_ZN6BigIntD2Ev, .-_ZN6BigIntD2Ev
	.weak	_ZN6BigIntD1Ev
	.set	_ZN6BigIntD1Ev,_ZN6BigIntD2Ev
	.section	.text._ZN6BigInt14multiplicationERS_,"axG",@progbits,_ZN6BigInt14multiplicationERS_,comdat
	.align 2
	.weak	_ZN6BigInt14multiplicationERS_
	.type	_ZN6BigInt14multiplicationERS_, @function
_ZN6BigInt14multiplicationERS_:
.LFB3261:
	.cfi_startproc
	.cfi_personality 0x9b,DW.ref.__gxx_personality_v0
	.cfi_lsda 0x1b,.LLSDA3261
	endbr64
	pushq	%rbp
	.cfi_def_cfa_offset 16
	.cfi_offset 6, -16
	movq	%rsp, %rbp
	.cfi_def_cfa_register 6
	pushq	%r13
	pushq	%r12
	pushq	%rbx
	subq	$152, %rsp
	.cfi_offset 13, -24
	.cfi_offset 12, -32
	.cfi_offset 3, -40
	movq	%rdi, -152(%rbp)
	movq	%rsi, -160(%rbp)
	movq	%rdx, -168(%rbp)
	movq	%fs:40, %rax
	movq	%rax, -40(%rbp)
	xorl	%eax, %eax
	leaq	-112(%rbp), %rax
	movq	%rax, %rdi
	call	_ZNSt6vectorI6BigIntSaIS0_EEC1Ev
	movq	-152(%rbp), %rax
	movq	%rax, %rdi
	call	_ZN6BigIntC1Ev
	leaq	-80(%rbp), %rax
	movq	%rax, %rdi
	call	_ZN6BigIntC1Ev
	movl	$0, -48(%rbp)
	movl	$0, -44(%rbp)
	leaq	-48(%rbp), %rax
	movq	%rax, %r12
	movl	$2, %r13d
	movq	%r12, %rcx
	movq	%r13, %rbx
	movq	%r12, %rax
	movq	%r13, %rdx
	leaq	-80(%rbp), %rax
	addq	$8, %rax
	movq	%rcx, %rsi
	movq	%rax, %rdi
.LEHB0:
	call	_ZNSt6vectorIjSaIjEEaSESt16initializer_listIjE
	movl	$0, -132(%rbp)
	movl	$0, -140(%rbp)
	movl	$0, -136(%rbp)
.L30:
	movq	-168(%rbp), %rax
	movl	4(%rax), %eax
	cmpl	%eax, -136(%rbp)
	jge	.L37
	movl	$0, -140(%rbp)
.L29:
	movq	-160(%rbp), %rax
	movl	4(%rax), %eax
	cmpl	%eax, -140(%rbp)
	jge	.L28
	movl	-136(%rbp), %eax
	leal	2(%rax), %edx
	movl	-140(%rbp), %eax
	addl	%edx, %eax
	movl	%eax, -76(%rbp)
	movl	-136(%rbp), %eax
	cltq
	movq	-168(%rbp), %rdx
	addq	$8, %rdx
	movq	%rax, %rsi
	movq	%rdx, %rdi
	call	_ZNSt6vectorIjSaIjEEixEm
	movl	(%rax), %ebx
	movl	-140(%rbp), %eax
	cltq
	movq	-160(%rbp), %rdx
	addq	$8, %rdx
	movq	%rax, %rsi
	movq	%rdx, %rdi
	call	_ZNSt6vectorIjSaIjEEixEm
	movl	(%rax), %eax
	imull	%ebx, %eax
	movl	%eax, -132(%rbp)
	leaq	-80(%rbp), %rax
	addq	$8, %rax
	movl	$0, %esi
	movq	%rax, %rdi
	call	_ZNSt6vectorIjSaIjEEixEm
	movl	-132(%rbp), %edx
	movzwl	%dx, %edx
	movl	%edx, (%rax)
	leaq	-80(%rbp), %rax
	addq	$8, %rax
	movl	$1, %esi
	movq	%rax, %rdi
	call	_ZNSt6vectorIjSaIjEEixEm
	movl	-132(%rbp), %edx
	shrl	$16, %edx
	movl	%edx, (%rax)
	leaq	-80(%rbp), %rax
	addq	$8, %rax
	movq	%rax, %rdi
	call	_ZNSt6vectorIjSaIjEE3endEv
	movq	%rax, -128(%rbp)
	movl	-136(%rbp), %edx
	movl	-140(%rbp), %eax
	addl	%edx, %eax
	movl	%eax, -144(%rbp)
	leaq	-128(%rbp), %rdx
	leaq	-120(%rbp), %rax
	movq	%rdx, %rsi
	movq	%rax, %rdi
	call	_ZN9__gnu_cxx17__normal_iteratorIPKjSt6vectorIjSaIjEEEC1IPjEERKNS0_IT_NS_11__enable_ifIXsrSt10__are_sameIS9_S8_E7__valueES5_E6__typeEEE
	leaq	-144(%rbp), %rdx
	movq	-120(%rbp), %rax
	leaq	-80(%rbp), %rcx
	leaq	8(%rcx), %rdi
	movq	%rdx, %rcx
	movl	$0, %edx
	movq	%rax, %rsi
	call	_ZNSt6vectorIjSaIjEE6insertEN9__gnu_cxx17__normal_iteratorIPKjS1_EEmRS4_
	leaq	-80(%rbp), %rdx
	movq	-152(%rbp), %rax
	movq	%rdx, %rsi
	movq	%rax, %rdi
	call	_ZN6BigInt8additionERKS_
.LEHE0:
	addl	$1, -140(%rbp)
	jmp	.L29
.L28:
	addl	$1, -136(%rbp)
	jmp	.L30
.L37:
	nop
	leaq	-80(%rbp), %rax
	movq	%rax, %rdi
	call	_ZN6BigIntD1Ev
	leaq	-112(%rbp), %rax
	movq	%rax, %rdi
	call	_ZNSt6vectorI6BigIntSaIS0_EED1Ev
	nop
	movq	-40(%rbp), %rax
	xorq	%fs:40, %rax
	je	.L33
	jmp	.L36
.L34:
	endbr64
	movq	%rax, %rbx
	leaq	-80(%rbp), %rax
	movq	%rax, %rdi
	call	_ZN6BigIntD1Ev
	movq	-152(%rbp), %rax
	movq	%rax, %rdi
	call	_ZN6BigIntD1Ev
	leaq	-112(%rbp), %rax
	movq	%rax, %rdi
	call	_ZNSt6vectorI6BigIntSaIS0_EED1Ev
	movq	%rbx, %rax
	movq	%rax, %rdi
.LEHB1:
	call	_Unwind_Resume@PLT
.LEHE1:
.L36:
	call	__stack_chk_fail@PLT
.L33:
	movq	-152(%rbp), %rax
	addq	$152, %rsp
	popq	%rbx
	popq	%r12
	popq	%r13
	popq	%rbp
	.cfi_def_cfa 7, 8
	ret
	.cfi_endproc
.LFE3261:
	.globl	__gxx_personality_v0
	.section	.gcc_except_table._ZN6BigInt14multiplicationERS_,"aG",@progbits,_ZN6BigInt14multiplicationERS_,comdat
.LLSDA3261:
	.byte	0xff
	.byte	0xff
	.byte	0x1
	.uleb128 .LLSDACSE3261-.LLSDACSB3261
.LLSDACSB3261:
	.uleb128 .LEHB0-.LFB3261
	.uleb128 .LEHE0-.LEHB0
	.uleb128 .L34-.LFB3261
	.uleb128 0
	.uleb128 .LEHB1-.LFB3261
	.uleb128 .LEHE1-.LEHB1
	.uleb128 0
	.uleb128 0
.LLSDACSE3261:
	.section	.text._ZN6BigInt14multiplicationERS_,"axG",@progbits,_ZN6BigInt14multiplicationERS_,comdat
	.size	_ZN6BigInt14multiplicationERS_, .-_ZN6BigInt14multiplicationERS_
	.section	.text._ZN6BigIntC2Ev,"axG",@progbits,_ZN6BigIntC5Ev,comdat
	.align 2
	.weak	_ZN6BigIntC2Ev
	.type	_ZN6BigIntC2Ev, @function
_ZN6BigIntC2Ev:
.LFB3284:
	.cfi_startproc
	endbr64
	pushq	%rbp
	.cfi_def_cfa_offset 16
	.cfi_offset 6, -16
	movq	%rsp, %rbp
	.cfi_def_cfa_register 6
	subq	$16, %rsp
	movq	%rdi, -8(%rbp)
	movq	-8(%rbp), %rax
	movb	$0, (%rax)
	movq	-8(%rbp), %rax
	movl	$0, 4(%rax)
	movq	-8(%rbp), %rax
	addq	$8, %rax
	movq	%rax, %rdi
	call	_ZNSt6vectorIjSaIjEEC1Ev
	nop
	leave
	.cfi_def_cfa 7, 8
	ret
	.cfi_endproc
.LFE3284:
	.size	_ZN6BigIntC2Ev, .-_ZN6BigIntC2Ev
	.weak	_ZN6BigIntC1Ev
	.set	_ZN6BigIntC1Ev,_ZN6BigIntC2Ev
	.section	.text._ZN6BigIntC2ESt6vectorIjSaIjEE,"axG",@progbits,_ZN6BigIntC5ESt6vectorIjSaIjEE,comdat
	.align 2
	.weak	_ZN6BigIntC2ESt6vectorIjSaIjEE
	.type	_ZN6BigIntC2ESt6vectorIjSaIjEE, @function
_ZN6BigIntC2ESt6vectorIjSaIjEE:
.LFB3287:
	.cfi_startproc
	.cfi_personality 0x9b,DW.ref.__gxx_personality_v0
	.cfi_lsda 0x1b,.LLSDA3287
	endbr64
	pushq	%rbp
	.cfi_def_cfa_offset 16
	.cfi_offset 6, -16
	movq	%rsp, %rbp
	.cfi_def_cfa_register 6
	pushq	%rbx
	subq	$24, %rsp
	.cfi_offset 3, -24
	movq	%rdi, -24(%rbp)
	movq	%rsi, -32(%rbp)
	movq	-24(%rbp), %rax
	movb	$0, (%rax)
	movq	-24(%rbp), %rax
	movl	$0, 4(%rax)
	movq	-24(%rbp), %rax
	addq	$8, %rax
	movq	%rax, %rdi
	call	_ZNSt6vectorIjSaIjEEC1Ev
	movq	-24(%rbp), %rax
	leaq	8(%rax), %rdx
	movq	-32(%rbp), %rax
	movq	%rax, %rsi
	movq	%rdx, %rdi
.LEHB2:
	call	_ZNSt6vectorIjSaIjEEaSERKS1_
.LEHE2:
	movq	-24(%rbp), %rax
	addq	$8, %rax
	movq	%rax, %rdi
	call	_ZNKSt6vectorIjSaIjEE4sizeEv
	movl	%eax, %edx
	movq	-24(%rbp), %rax
	movl	%edx, 4(%rax)
	jmp	.L42
.L41:
	endbr64
	movq	%rax, %rbx
	movq	-24(%rbp), %rax
	addq	$8, %rax
	movq	%rax, %rdi
	call	_ZNSt6vectorIjSaIjEED1Ev
	movq	%rbx, %rax
	movq	%rax, %rdi
.LEHB3:
	call	_Unwind_Resume@PLT
.LEHE3:
.L42:
	addq	$24, %rsp
	popq	%rbx
	popq	%rbp
	.cfi_def_cfa 7, 8
	ret
	.cfi_endproc
.LFE3287:
	.section	.gcc_except_table._ZN6BigIntC2ESt6vectorIjSaIjEE,"aG",@progbits,_ZN6BigIntC5ESt6vectorIjSaIjEE,comdat
.LLSDA3287:
	.byte	0xff
	.byte	0xff
	.byte	0x1
	.uleb128 .LLSDACSE3287-.LLSDACSB3287
.LLSDACSB3287:
	.uleb128 .LEHB2-.LFB3287
	.uleb128 .LEHE2-.LEHB2
	.uleb128 .L41-.LFB3287
	.uleb128 0
	.uleb128 .LEHB3-.LFB3287
	.uleb128 .LEHE3-.LEHB3
	.uleb128 0
	.uleb128 0
.LLSDACSE3287:
	.section	.text._ZN6BigIntC2ESt6vectorIjSaIjEE,"axG",@progbits,_ZN6BigIntC5ESt6vectorIjSaIjEE,comdat
	.size	_ZN6BigIntC2ESt6vectorIjSaIjEE, .-_ZN6BigIntC2ESt6vectorIjSaIjEE
	.weak	_ZN6BigIntC1ESt6vectorIjSaIjEE
	.set	_ZN6BigIntC1ESt6vectorIjSaIjEE,_ZN6BigIntC2ESt6vectorIjSaIjEE
	.section	.text._ZN6BigIntmlERS_,"axG",@progbits,_ZN6BigIntmlERS_,comdat
	.align 2
	.weak	_ZN6BigIntmlERS_
	.type	_ZN6BigIntmlERS_, @function
_ZN6BigIntmlERS_:
.LFB3291:
	.cfi_startproc
	endbr64
	pushq	%rbp
	.cfi_def_cfa_offset 16
	.cfi_offset 6, -16
	movq	%rsp, %rbp
	.cfi_def_cfa_register 6
	subq	$48, %rsp
	movq	%rdi, -24(%rbp)
	movq	%rsi, -32(%rbp)
	movq	%rdx, -40(%rbp)
	movq	%fs:40, %rax
	movq	%rax, -8(%rbp)
	xorl	%eax, %eax
	movq	-24(%rbp), %rax
	movq	-40(%rbp), %rdx
	movq	-32(%rbp), %rcx
	movq	%rcx, %rsi
	movq	%rax, %rdi
	call	_ZN6BigInt14multiplicationERS_
	movq	-8(%rbp), %rax
	xorq	%fs:40, %rax
	je	.L45
	call	__stack_chk_fail@PLT
.L45:
	movq	-24(%rbp), %rax
	leave
	.cfi_def_cfa 7, 8
	ret
	.cfi_endproc
.LFE3291:
	.size	_ZN6BigIntmlERS_, .-_ZN6BigIntmlERS_
	.section	.text._ZN9__gnu_cxx14__alloc_traitsISaIjEjE15_S_always_equalEv,"axG",@progbits,_ZN9__gnu_cxx14__alloc_traitsISaIjEjE15_S_always_equalEv,comdat
	.weak	_ZN9__gnu_cxx14__alloc_traitsISaIjEjE15_S_always_equalEv
	.type	_ZN9__gnu_cxx14__alloc_traitsISaIjEjE15_S_always_equalEv, @function
_ZN9__gnu_cxx14__alloc_traitsISaIjEjE15_S_always_equalEv:
.LFB3295:
	.cfi_startproc
	endbr64
	pushq	%rbp
	.cfi_def_cfa_offset 16
	.cfi_offset 6, -16
	movq	%rsp, %rbp
	.cfi_def_cfa_register 6
	movl	$1, %eax
	popq	%rbp
	.cfi_def_cfa 7, 8
	ret
	.cfi_endproc
.LFE3295:
	.size	_ZN9__gnu_cxx14__alloc_traitsISaIjEjE15_S_always_equalEv, .-_ZN9__gnu_cxx14__alloc_traitsISaIjEjE15_S_always_equalEv
	.section	.text._ZN6BigIntaSEOS_,"axG",@progbits,_ZN6BigIntaSEOS_,comdat
	.align 2
	.weak	_ZN6BigIntaSEOS_
	.type	_ZN6BigIntaSEOS_, @function
_ZN6BigIntaSEOS_:
.LFB3296:
	.cfi_startproc
	endbr64
	pushq	%rbp
	.cfi_def_cfa_offset 16
	.cfi_offset 6, -16
	movq	%rsp, %rbp
	.cfi_def_cfa_register 6
	subq	$16, %rsp
	movq	%rdi, -8(%rbp)
	movq	%rsi, -16(%rbp)
	movq	-16(%rbp), %rax
	movzbl	(%rax), %edx
	movq	-8(%rbp), %rax
	movb	%dl, (%rax)
	movq	-16(%rbp), %rax
	movl	4(%rax), %edx
	movq	-8(%rbp), %rax
	movl	%edx, 4(%rax)
	movq	-16(%rbp), %rax
	leaq	8(%rax), %rdx
	movq	-8(%rbp), %rax
	addq	$8, %rax
	movq	%rdx, %rsi
	movq	%rax, %rdi
	call	_ZNSt6vectorIjSaIjEEaSEOS1_
	movq	-8(%rbp), %rax
	leave
	.cfi_def_cfa 7, 8
	ret
	.cfi_endproc
.LFE3296:
	.size	_ZN6BigIntaSEOS_, .-_ZN6BigIntaSEOS_
	.section	.rodata
.LC0:
	.string	"Time : "
.LC1:
	.string	" ms"
	.text
	.globl	main
	.type	main, @function
main:
.LFB3292:
	.cfi_startproc
	.cfi_personality 0x9b,DW.ref.__gxx_personality_v0
	.cfi_lsda 0x1b,.LLSDA3292
	endbr64
	pushq	%rbp
	.cfi_def_cfa_offset 16
	.cfi_offset 6, -16
	movq	%rsp, %rbp
	.cfi_def_cfa_register 6
	pushq	%r15
	pushq	%r14
	pushq	%r13
	pushq	%r12
	pushq	%rbx
	subq	$200, %rsp
	.cfi_offset 15, -24
	.cfi_offset 14, -32
	.cfi_offset 13, -40
	.cfi_offset 12, -48
	.cfi_offset 3, -56
	movq	%fs:40, %rax
	movq	%rax, -56(%rbp)
	xorl	%eax, %eax
	call	_ZNSt6chrono3_V212steady_clock3nowEv@PLT
	movq	%rax, -232(%rbp)
	movl	$1, -68(%rbp)
	movl	$2, -64(%rbp)
	movl	$3, -60(%rbp)
	leaq	-68(%rbp), %rax
	movq	%rax, %r14
	movl	$3, %r15d
	leaq	-144(%rbp), %rax
	movq	%rax, %rdi
	call	_ZNSaIjEC1Ev
	leaq	-144(%rbp), %rdx
	movq	%r14, %rsi
	movq	%r15, %rdi
	movq	%r14, %rcx
	movq	%r15, %rbx
	movq	%rbx, %rdi
	leaq	-112(%rbp), %rax
	movq	%rdx, %rcx
	movq	%rdi, %rdx
	movq	%rax, %rdi
.LEHB4:
	call	_ZNSt6vectorIjSaIjEEC1ESt16initializer_listIjERKS0_
.LEHE4:
	leaq	-112(%rbp), %rdx
	leaq	-208(%rbp), %rax
	movq	%rdx, %rsi
	movq	%rax, %rdi
.LEHB5:
	call	_ZN6BigIntC1ESt6vectorIjSaIjEE
.LEHE5:
	leaq	-112(%rbp), %rax
	movq	%rax, %rdi
	call	_ZNSt6vectorIjSaIjEED1Ev
	leaq	-144(%rbp), %rax
	movq	%rax, %rdi
	call	_ZNSaIjED1Ev
	movl	$2, -68(%rbp)
	movl	$3, -64(%rbp)
	movl	$4, -60(%rbp)
	leaq	-68(%rbp), %rax
	movq	%rax, %r12
	movl	$3, %r13d
	leaq	-144(%rbp), %rax
	movq	%rax, %rdi
	call	_ZNSaIjEC1Ev
	leaq	-144(%rbp), %rdx
	movq	%r12, %rsi
	movq	%r13, %rdi
	movq	%r12, %rcx
	movq	%r13, %rbx
	movq	%rbx, %rdi
	leaq	-112(%rbp), %rax
	movq	%rdx, %rcx
	movq	%rdi, %rdx
	movq	%rax, %rdi
.LEHB6:
	call	_ZNSt6vectorIjSaIjEEC1ESt16initializer_listIjERKS0_
.LEHE6:
	leaq	-112(%rbp), %rdx
	leaq	-176(%rbp), %rax
	movq	%rdx, %rsi
	movq	%rax, %rdi
.LEHB7:
	call	_ZN6BigIntC1ESt6vectorIjSaIjEE
.LEHE7:
	leaq	-112(%rbp), %rax
	movq	%rax, %rdi
	call	_ZNSt6vectorIjSaIjEED1Ev
	leaq	-144(%rbp), %rax
	movq	%rax, %rdi
	call	_ZNSaIjED1Ev
	leaq	-144(%rbp), %rax
	movq	%rax, %rdi
	call	_ZN6BigIntC1Ev
	leaq	-112(%rbp), %rax
	leaq	-176(%rbp), %rdx
	leaq	-208(%rbp), %rcx
	movq	%rcx, %rsi
	movq	%rax, %rdi
.LEHB8:
	call	_ZN6BigIntmlERS_
	leaq	-112(%rbp), %rdx
	leaq	-144(%rbp), %rax
	movq	%rdx, %rsi
	movq	%rax, %rdi
	call	_ZN6BigIntaSEOS_
	leaq	-112(%rbp), %rax
	movq	%rax, %rdi
	call	_ZN6BigIntD1Ev
	call	_ZNSt6chrono3_V212steady_clock3nowEv@PLT
	movq	%rax, -224(%rbp)
	leaq	.LC0(%rip), %rsi
	leaq	_ZSt4cout(%rip), %rdi
	call	_ZStlsISt11char_traitsIcEERSt13basic_ostreamIcT_ES5_PKc@PLT
	movq	%rax, %rbx
	leaq	-232(%rbp), %rdx
	leaq	-224(%rbp), %rax
	movq	%rdx, %rsi
	movq	%rax, %rdi
	call	_ZNSt6chronomiINS_3_V212steady_clockENS_8durationIlSt5ratioILl1ELl1000000000EEEES6_EENSt11common_typeIJT0_T1_EE4typeERKNS_10time_pointIT_S8_EERKNSC_ISD_S9_EE
	movq	%rax, -216(%rbp)
	leaq	-216(%rbp), %rax
	movq	%rax, %rdi
	call	_ZNSt6chrono13duration_castINS_8durationIlSt5ratioILl1ELl1000EEEElS2_ILl1ELl1000000000EEEENSt9enable_ifIXsrNS_13__is_durationIT_EE5valueES8_E4typeERKNS1_IT0_T1_EE
	movq	%rax, -112(%rbp)
	leaq	-112(%rbp), %rax
	movq	%rax, %rdi
	call	_ZNKSt6chrono8durationIlSt5ratioILl1ELl1000EEE5countEv
	movq	%rax, %rsi
	movq	%rbx, %rdi
	call	_ZNSolsEl@PLT
	leaq	.LC1(%rip), %rsi
	movq	%rax, %rdi
	call	_ZStlsISt11char_traitsIcEERSt13basic_ostreamIcT_ES5_PKc@PLT
	movq	%rax, %rdx
	movq	_ZSt4endlIcSt11char_traitsIcEERSt13basic_ostreamIT_T0_ES6_@GOTPCREL(%rip), %rax
	movq	%rax, %rsi
	movq	%rdx, %rdi
	call	_ZNSolsEPFRSoS_E@PLT
.LEHE8:
	leaq	-144(%rbp), %rax
	movq	%rax, %rdi
	call	_ZN6BigIntD1Ev
	leaq	-176(%rbp), %rax
	movq	%rax, %rdi
	call	_ZN6BigIntD1Ev
	leaq	-208(%rbp), %rax
	movq	%rax, %rdi
	call	_ZN6BigIntD1Ev
	movl	$0, %eax
	movq	-56(%rbp), %rcx
	xorq	%fs:40, %rcx
	je	.L58
	jmp	.L64
.L60:
	endbr64
	movq	%rax, %rbx
	leaq	-112(%rbp), %rax
	movq	%rax, %rdi
	call	_ZNSt6vectorIjSaIjEED1Ev
	jmp	.L53
.L59:
	endbr64
	movq	%rax, %rbx
.L53:
	leaq	-144(%rbp), %rax
	movq	%rax, %rdi
	call	_ZNSaIjED1Ev
	movq	%rbx, %rax
	movq	%rax, %rdi
.LEHB9:
	call	_Unwind_Resume@PLT
.L62:
	endbr64
	movq	%rax, %rbx
	leaq	-112(%rbp), %rax
	movq	%rax, %rdi
	call	_ZNSt6vectorIjSaIjEED1Ev
	jmp	.L55
.L61:
	endbr64
	movq	%rax, %rbx
.L55:
	leaq	-144(%rbp), %rax
	movq	%rax, %rdi
	call	_ZNSaIjED1Ev
	jmp	.L56
.L63:
	endbr64
	movq	%rax, %rbx
	leaq	-144(%rbp), %rax
	movq	%rax, %rdi
	call	_ZN6BigIntD1Ev
	leaq	-176(%rbp), %rax
	movq	%rax, %rdi
	call	_ZN6BigIntD1Ev
.L56:
	leaq	-208(%rbp), %rax
	movq	%rax, %rdi
	call	_ZN6BigIntD1Ev
	movq	%rbx, %rax
	movq	%rax, %rdi
	call	_Unwind_Resume@PLT
.LEHE9:
.L64:
	call	__stack_chk_fail@PLT
.L58:
	addq	$200, %rsp
	popq	%rbx
	popq	%r12
	popq	%r13
	popq	%r14
	popq	%r15
	popq	%rbp
	.cfi_def_cfa 7, 8
	ret
	.cfi_endproc
.LFE3292:
	.section	.gcc_except_table,"a",@progbits
.LLSDA3292:
	.byte	0xff
	.byte	0xff
	.byte	0x1
	.uleb128 .LLSDACSE3292-.LLSDACSB3292
.LLSDACSB3292:
	.uleb128 .LEHB4-.LFB3292
	.uleb128 .LEHE4-.LEHB4
	.uleb128 .L59-.LFB3292
	.uleb128 0
	.uleb128 .LEHB5-.LFB3292
	.uleb128 .LEHE5-.LEHB5
	.uleb128 .L60-.LFB3292
	.uleb128 0
	.uleb128 .LEHB6-.LFB3292
	.uleb128 .LEHE6-.LEHB6
	.uleb128 .L61-.LFB3292
	.uleb128 0
	.uleb128 .LEHB7-.LFB3292
	.uleb128 .LEHE7-.LEHB7
	.uleb128 .L62-.LFB3292
	.uleb128 0
	.uleb128 .LEHB8-.LFB3292
	.uleb128 .LEHE8-.LEHB8
	.uleb128 .L63-.LFB3292
	.uleb128 0
	.uleb128 .LEHB9-.LFB3292
	.uleb128 .LEHE9-.LEHB9
	.uleb128 0
	.uleb128 0
.LLSDACSE3292:
	.text
	.size	main, .-main
	.section	.text._ZNSt12_Vector_baseIjSaIjEE12_Vector_implC2Ev,"axG",@progbits,_ZNSt12_Vector_baseIjSaIjEE12_Vector_implC5Ev,comdat
	.align 2
	.weak	_ZNSt12_Vector_baseIjSaIjEE12_Vector_implC2Ev
	.type	_ZNSt12_Vector_baseIjSaIjEE12_Vector_implC2Ev, @function
_ZNSt12_Vector_baseIjSaIjEE12_Vector_implC2Ev:
.LFB3537:
	.cfi_startproc
	endbr64
	pushq	%rbp
	.cfi_def_cfa_offset 16
	.cfi_offset 6, -16
	movq	%rsp, %rbp
	.cfi_def_cfa_register 6
	subq	$16, %rsp
	movq	%rdi, -8(%rbp)
	movq	-8(%rbp), %rax
	movq	%rax, %rdi
	call	_ZNSaIjEC2Ev
	movq	-8(%rbp), %rax
	movq	%rax, %rdi
	call	_ZNSt12_Vector_baseIjSaIjEE17_Vector_impl_dataC2Ev
	nop
	leave
	.cfi_def_cfa 7, 8
	ret
	.cfi_endproc
.LFE3537:
	.size	_ZNSt12_Vector_baseIjSaIjEE12_Vector_implC2Ev, .-_ZNSt12_Vector_baseIjSaIjEE12_Vector_implC2Ev
	.weak	_ZNSt12_Vector_baseIjSaIjEE12_Vector_implC1Ev
	.set	_ZNSt12_Vector_baseIjSaIjEE12_Vector_implC1Ev,_ZNSt12_Vector_baseIjSaIjEE12_Vector_implC2Ev
	.section	.text._ZNSaIjED2Ev,"axG",@progbits,_ZNSaIjED5Ev,comdat
	.align 2
	.weak	_ZNSaIjED2Ev
	.type	_ZNSaIjED2Ev, @function
_ZNSaIjED2Ev:
.LFB3540:
	.cfi_startproc
	endbr64
	pushq	%rbp
	.cfi_def_cfa_offset 16
	.cfi_offset 6, -16
	movq	%rsp, %rbp
	.cfi_def_cfa_register 6
	subq	$16, %rsp
	movq	%rdi, -8(%rbp)
	movq	-8(%rbp), %rax
	movq	%rax, %rdi
	call	_ZN9__gnu_cxx13new_allocatorIjED2Ev
	nop
	leave
	.cfi_def_cfa 7, 8
	ret
	.cfi_endproc
.LFE3540:
	.size	_ZNSaIjED2Ev, .-_ZNSaIjED2Ev
	.weak	_ZNSaIjED1Ev
	.set	_ZNSaIjED1Ev,_ZNSaIjED2Ev
	.section	.text._ZNSt12_Vector_baseIjSaIjEED2Ev,"axG",@progbits,_ZNSt12_Vector_baseIjSaIjEED5Ev,comdat
	.align 2
	.weak	_ZNSt12_Vector_baseIjSaIjEED2Ev
	.type	_ZNSt12_Vector_baseIjSaIjEED2Ev, @function
_ZNSt12_Vector_baseIjSaIjEED2Ev:
.LFB3543:
	.cfi_startproc
	.cfi_personality 0x9b,DW.ref.__gxx_personality_v0
	.cfi_lsda 0x1b,.LLSDA3543
	endbr64
	pushq	%rbp
	.cfi_def_cfa_offset 16
	.cfi_offset 6, -16
	movq	%rsp, %rbp
	.cfi_def_cfa_register 6
	subq	$16, %rsp
	movq	%rdi, -8(%rbp)
	movq	-8(%rbp), %rax
	movq	16(%rax), %rdx
	movq	-8(%rbp), %rax
	movq	(%rax), %rax
	subq	%rax, %rdx
	movq	%rdx, %rax
	sarq	$2, %rax
	movq	%rax, %rdx
	movq	-8(%rbp), %rax
	movq	(%rax), %rcx
	movq	-8(%rbp), %rax
	movq	%rcx, %rsi
	movq	%rax, %rdi
	call	_ZNSt12_Vector_baseIjSaIjEE13_M_deallocateEPjm
	movq	-8(%rbp), %rax
	movq	%rax, %rdi
	call	_ZNSt12_Vector_baseIjSaIjEE12_Vector_implD1Ev
	nop
	leave
	.cfi_def_cfa 7, 8
	ret
	.cfi_endproc
.LFE3543:
	.section	.gcc_except_table
.LLSDA3543:
	.byte	0xff
	.byte	0xff
	.byte	0x1
	.uleb128 .LLSDACSE3543-.LLSDACSB3543
.LLSDACSB3543:
.LLSDACSE3543:
	.section	.text._ZNSt12_Vector_baseIjSaIjEED2Ev,"axG",@progbits,_ZNSt12_Vector_baseIjSaIjEED5Ev,comdat
	.size	_ZNSt12_Vector_baseIjSaIjEED2Ev, .-_ZNSt12_Vector_baseIjSaIjEED2Ev
	.weak	_ZNSt12_Vector_baseIjSaIjEED1Ev
	.set	_ZNSt12_Vector_baseIjSaIjEED1Ev,_ZNSt12_Vector_baseIjSaIjEED2Ev
	.section	.text._ZNSt6vectorIjSaIjEED2Ev,"axG",@progbits,_ZNSt6vectorIjSaIjEED5Ev,comdat
	.align 2
	.weak	_ZNSt6vectorIjSaIjEED2Ev
	.type	_ZNSt6vectorIjSaIjEED2Ev, @function
_ZNSt6vectorIjSaIjEED2Ev:
.LFB3546:
	.cfi_startproc
	.cfi_personality 0x9b,DW.ref.__gxx_personality_v0
	.cfi_lsda 0x1b,.LLSDA3546
	endbr64
	pushq	%rbp
	.cfi_def_cfa_offset 16
	.cfi_offset 6, -16
	movq	%rsp, %rbp
	.cfi_def_cfa_register 6
	subq	$16, %rsp
	movq	%rdi, -8(%rbp)
	movq	-8(%rbp), %rax
	movq	%rax, %rdi
	call	_ZNSt12_Vector_baseIjSaIjEE19_M_get_Tp_allocatorEv
	movq	%rax, %rdx
	movq	-8(%rbp), %rax
	movq	8(%rax), %rcx
	movq	-8(%rbp), %rax
	movq	(%rax), %rax
	movq	%rcx, %rsi
	movq	%rax, %rdi
	call	_ZSt8_DestroyIPjjEvT_S1_RSaIT0_E
	movq	-8(%rbp), %rax
	movq	%rax, %rdi
	call	_ZNSt12_Vector_baseIjSaIjEED2Ev
	nop
	leave
	.cfi_def_cfa 7, 8
	ret
	.cfi_endproc
.LFE3546:
	.section	.gcc_except_table
.LLSDA3546:
	.byte	0xff
	.byte	0xff
	.byte	0x1
	.uleb128 .LLSDACSE3546-.LLSDACSB3546
.LLSDACSB3546:
.LLSDACSE3546:
	.section	.text._ZNSt6vectorIjSaIjEED2Ev,"axG",@progbits,_ZNSt6vectorIjSaIjEED5Ev,comdat
	.size	_ZNSt6vectorIjSaIjEED2Ev, .-_ZNSt6vectorIjSaIjEED2Ev
	.weak	_ZNSt6vectorIjSaIjEED1Ev
	.set	_ZNSt6vectorIjSaIjEED1Ev,_ZNSt6vectorIjSaIjEED2Ev
	.section	.text._ZNKSt6vectorIjSaIjEE4sizeEv,"axG",@progbits,_ZNKSt6vectorIjSaIjEE4sizeEv,comdat
	.align 2
	.weak	_ZNKSt6vectorIjSaIjEE4sizeEv
	.type	_ZNKSt6vectorIjSaIjEE4sizeEv, @function
_ZNKSt6vectorIjSaIjEE4sizeEv:
.LFB3548:
	.cfi_startproc
	endbr64
	pushq	%rbp
	.cfi_def_cfa_offset 16
	.cfi_offset 6, -16
	movq	%rsp, %rbp
	.cfi_def_cfa_register 6
	movq	%rdi, -8(%rbp)
	movq	-8(%rbp), %rax
	movq	8(%rax), %rdx
	movq	-8(%rbp), %rax
	movq	(%rax), %rax
	subq	%rax, %rdx
	movq	%rdx, %rax
	sarq	$2, %rax
	popq	%rbp
	.cfi_def_cfa 7, 8
	ret
	.cfi_endproc
.LFE3548:
	.size	_ZNKSt6vectorIjSaIjEE4sizeEv, .-_ZNKSt6vectorIjSaIjEE4sizeEv
	.section	.text._ZNSt6vectorIjSaIjEEixEm,"axG",@progbits,_ZNSt6vectorIjSaIjEEixEm,comdat
	.align 2
	.weak	_ZNSt6vectorIjSaIjEEixEm
	.type	_ZNSt6vectorIjSaIjEEixEm, @function
_ZNSt6vectorIjSaIjEEixEm:
.LFB3577:
	.cfi_startproc
	endbr64
	pushq	%rbp
	.cfi_def_cfa_offset 16
	.cfi_offset 6, -16
	movq	%rsp, %rbp
	.cfi_def_cfa_register 6
	movq	%rdi, -8(%rbp)
	movq	%rsi, -16(%rbp)
	movq	-8(%rbp), %rax
	movq	(%rax), %rax
	movq	-16(%rbp), %rdx
	salq	$2, %rdx
	addq	%rdx, %rax
	popq	%rbp
	.cfi_def_cfa 7, 8
	ret
	.cfi_endproc
.LFE3577:
	.size	_ZNSt6vectorIjSaIjEEixEm, .-_ZNSt6vectorIjSaIjEEixEm
	.section	.text._ZNKSt6vectorIjSaIjEEixEm,"axG",@progbits,_ZNKSt6vectorIjSaIjEEixEm,comdat
	.align 2
	.weak	_ZNKSt6vectorIjSaIjEEixEm
	.type	_ZNKSt6vectorIjSaIjEEixEm, @function
_ZNKSt6vectorIjSaIjEEixEm:
.LFB3578:
	.cfi_startproc
	endbr64
	pushq	%rbp
	.cfi_def_cfa_offset 16
	.cfi_offset 6, -16
	movq	%rsp, %rbp
	.cfi_def_cfa_register 6
	movq	%rdi, -8(%rbp)
	movq	%rsi, -16(%rbp)
	movq	-8(%rbp), %rax
	movq	(%rax), %rax
	movq	-16(%rbp), %rdx
	salq	$2, %rdx
	addq	%rdx, %rax
	popq	%rbp
	.cfi_def_cfa 7, 8
	ret
	.cfi_endproc
.LFE3578:
	.size	_ZNKSt6vectorIjSaIjEEixEm, .-_ZNKSt6vectorIjSaIjEEixEm
	.section	.text._ZNSt6vectorIjSaIjEE9push_backEOj,"axG",@progbits,_ZNSt6vectorIjSaIjEE9push_backEOj,comdat
	.align 2
	.weak	_ZNSt6vectorIjSaIjEE9push_backEOj
	.type	_ZNSt6vectorIjSaIjEE9push_backEOj, @function
_ZNSt6vectorIjSaIjEE9push_backEOj:
.LFB3579:
	.cfi_startproc
	endbr64
	pushq	%rbp
	.cfi_def_cfa_offset 16
	.cfi_offset 6, -16
	movq	%rsp, %rbp
	.cfi_def_cfa_register 6
	subq	$16, %rsp
	movq	%rdi, -8(%rbp)
	movq	%rsi, -16(%rbp)
	movq	-16(%rbp), %rax
	movq	%rax, %rdi
	call	_ZSt4moveIRjEONSt16remove_referenceIT_E4typeEOS2_
	movq	%rax, %rdx
	movq	-8(%rbp), %rax
	movq	%rdx, %rsi
	movq	%rax, %rdi
	call	_ZNSt6vectorIjSaIjEE12emplace_backIJjEEEvDpOT_
	nop
	leave
	.cfi_def_cfa 7, 8
	ret
	.cfi_endproc
.LFE3579:
	.size	_ZNSt6vectorIjSaIjEE9push_backEOj, .-_ZNSt6vectorIjSaIjEE9push_backEOj
	.section	.text._ZNSt12_Vector_baseI6BigIntSaIS0_EE12_Vector_implC2Ev,"axG",@progbits,_ZNSt12_Vector_baseI6BigIntSaIS0_EE12_Vector_implC5Ev,comdat
	.align 2
	.weak	_ZNSt12_Vector_baseI6BigIntSaIS0_EE12_Vector_implC2Ev
	.type	_ZNSt12_Vector_baseI6BigIntSaIS0_EE12_Vector_implC2Ev, @function
_ZNSt12_Vector_baseI6BigIntSaIS0_EE12_Vector_implC2Ev:
.LFB3581:
	.cfi_startproc
	endbr64
	pushq	%rbp
	.cfi_def_cfa_offset 16
	.cfi_offset 6, -16
	movq	%rsp, %rbp
	.cfi_def_cfa_register 6
	subq	$16, %rsp
	movq	%rdi, -8(%rbp)
	movq	-8(%rbp), %rax
	movq	%rax, %rdi
	call	_ZNSaI6BigIntEC2Ev
	movq	-8(%rbp), %rax
	movq	%rax, %rdi
	call	_ZNSt12_Vector_baseI6BigIntSaIS0_EE17_Vector_impl_dataC2Ev
	nop
	leave
	.cfi_def_cfa 7, 8
	ret
	.cfi_endproc
.LFE3581:
	.size	_ZNSt12_Vector_baseI6BigIntSaIS0_EE12_Vector_implC2Ev, .-_ZNSt12_Vector_baseI6BigIntSaIS0_EE12_Vector_implC2Ev
	.weak	_ZNSt12_Vector_baseI6BigIntSaIS0_EE12_Vector_implC1Ev
	.set	_ZNSt12_Vector_baseI6BigIntSaIS0_EE12_Vector_implC1Ev,_ZNSt12_Vector_baseI6BigIntSaIS0_EE12_Vector_implC2Ev
	.section	.text._ZNSaI6BigIntED2Ev,"axG",@progbits,_ZNSaI6BigIntED5Ev,comdat
	.align 2
	.weak	_ZNSaI6BigIntED2Ev
	.type	_ZNSaI6BigIntED2Ev, @function
_ZNSaI6BigIntED2Ev:
.LFB3584:
	.cfi_startproc
	endbr64
	pushq	%rbp
	.cfi_def_cfa_offset 16
	.cfi_offset 6, -16
	movq	%rsp, %rbp
	.cfi_def_cfa_register 6
	subq	$16, %rsp
	movq	%rdi, -8(%rbp)
	movq	-8(%rbp), %rax
	movq	%rax, %rdi
	call	_ZN9__gnu_cxx13new_allocatorI6BigIntED2Ev
	nop
	leave
	.cfi_def_cfa 7, 8
	ret
	.cfi_endproc
.LFE3584:
	.size	_ZNSaI6BigIntED2Ev, .-_ZNSaI6BigIntED2Ev
	.weak	_ZNSaI6BigIntED1Ev
	.set	_ZNSaI6BigIntED1Ev,_ZNSaI6BigIntED2Ev
	.section	.text._ZNSt12_Vector_baseI6BigIntSaIS0_EED2Ev,"axG",@progbits,_ZNSt12_Vector_baseI6BigIntSaIS0_EED5Ev,comdat
	.align 2
	.weak	_ZNSt12_Vector_baseI6BigIntSaIS0_EED2Ev
	.type	_ZNSt12_Vector_baseI6BigIntSaIS0_EED2Ev, @function
_ZNSt12_Vector_baseI6BigIntSaIS0_EED2Ev:
.LFB3587:
	.cfi_startproc
	.cfi_personality 0x9b,DW.ref.__gxx_personality_v0
	.cfi_lsda 0x1b,.LLSDA3587
	endbr64
	pushq	%rbp
	.cfi_def_cfa_offset 16
	.cfi_offset 6, -16
	movq	%rsp, %rbp
	.cfi_def_cfa_register 6
	subq	$16, %rsp
	movq	%rdi, -8(%rbp)
	movq	-8(%rbp), %rax
	movq	16(%rax), %rdx
	movq	-8(%rbp), %rax
	movq	(%rax), %rax
	subq	%rax, %rdx
	movq	%rdx, %rax
	sarq	$5, %rax
	movq	%rax, %rdx
	movq	-8(%rbp), %rax
	movq	(%rax), %rcx
	movq	-8(%rbp), %rax
	movq	%rcx, %rsi
	movq	%rax, %rdi
	call	_ZNSt12_Vector_baseI6BigIntSaIS0_EE13_M_deallocateEPS0_m
	movq	-8(%rbp), %rax
	movq	%rax, %rdi
	call	_ZNSt12_Vector_baseI6BigIntSaIS0_EE12_Vector_implD1Ev
	nop
	leave
	.cfi_def_cfa 7, 8
	ret
	.cfi_endproc
.LFE3587:
	.section	.gcc_except_table
.LLSDA3587:
	.byte	0xff
	.byte	0xff
	.byte	0x1
	.uleb128 .LLSDACSE3587-.LLSDACSB3587
.LLSDACSB3587:
.LLSDACSE3587:
	.section	.text._ZNSt12_Vector_baseI6BigIntSaIS0_EED2Ev,"axG",@progbits,_ZNSt12_Vector_baseI6BigIntSaIS0_EED5Ev,comdat
	.size	_ZNSt12_Vector_baseI6BigIntSaIS0_EED2Ev, .-_ZNSt12_Vector_baseI6BigIntSaIS0_EED2Ev
	.weak	_ZNSt12_Vector_baseI6BigIntSaIS0_EED1Ev
	.set	_ZNSt12_Vector_baseI6BigIntSaIS0_EED1Ev,_ZNSt12_Vector_baseI6BigIntSaIS0_EED2Ev
	.section	.text._ZNSt6vectorI6BigIntSaIS0_EED2Ev,"axG",@progbits,_ZNSt6vectorI6BigIntSaIS0_EED5Ev,comdat
	.align 2
	.weak	_ZNSt6vectorI6BigIntSaIS0_EED2Ev
	.type	_ZNSt6vectorI6BigIntSaIS0_EED2Ev, @function
_ZNSt6vectorI6BigIntSaIS0_EED2Ev:
.LFB3590:
	.cfi_startproc
	.cfi_personality 0x9b,DW.ref.__gxx_personality_v0
	.cfi_lsda 0x1b,.LLSDA3590
	endbr64
	pushq	%rbp
	.cfi_def_cfa_offset 16
	.cfi_offset 6, -16
	movq	%rsp, %rbp
	.cfi_def_cfa_register 6
	subq	$16, %rsp
	movq	%rdi, -8(%rbp)
	movq	-8(%rbp), %rax
	movq	%rax, %rdi
	call	_ZNSt12_Vector_baseI6BigIntSaIS0_EE19_M_get_Tp_allocatorEv
	movq	%rax, %rdx
	movq	-8(%rbp), %rax
	movq	8(%rax), %rcx
	movq	-8(%rbp), %rax
	movq	(%rax), %rax
	movq	%rcx, %rsi
	movq	%rax, %rdi
	call	_ZSt8_DestroyIP6BigIntS0_EvT_S2_RSaIT0_E
	movq	-8(%rbp), %rax
	movq	%rax, %rdi
	call	_ZNSt12_Vector_baseI6BigIntSaIS0_EED2Ev
	nop
	leave
	.cfi_def_cfa 7, 8
	ret
	.cfi_endproc
.LFE3590:
	.section	.gcc_except_table
.LLSDA3590:
	.byte	0xff
	.byte	0xff
	.byte	0x1
	.uleb128 .LLSDACSE3590-.LLSDACSB3590
.LLSDACSB3590:
.LLSDACSE3590:
	.section	.text._ZNSt6vectorI6BigIntSaIS0_EED2Ev,"axG",@progbits,_ZNSt6vectorI6BigIntSaIS0_EED5Ev,comdat
	.size	_ZNSt6vectorI6BigIntSaIS0_EED2Ev, .-_ZNSt6vectorI6BigIntSaIS0_EED2Ev
	.weak	_ZNSt6vectorI6BigIntSaIS0_EED1Ev
	.set	_ZNSt6vectorI6BigIntSaIS0_EED1Ev,_ZNSt6vectorI6BigIntSaIS0_EED2Ev
	.section	.text._ZNSt6vectorIjSaIjEEaSESt16initializer_listIjE,"axG",@progbits,_ZNSt6vectorIjSaIjEEaSESt16initializer_listIjE,comdat
	.align 2
	.weak	_ZNSt6vectorIjSaIjEEaSESt16initializer_listIjE
	.type	_ZNSt6vectorIjSaIjEEaSESt16initializer_listIjE, @function
_ZNSt6vectorIjSaIjEEaSESt16initializer_listIjE:
.LFB3592:
	.cfi_startproc
	endbr64
	pushq	%rbp
	.cfi_def_cfa_offset 16
	.cfi_offset 6, -16
	movq	%rsp, %rbp
	.cfi_def_cfa_register 6
	pushq	%rbx
	subq	$56, %rsp
	.cfi_offset 3, -24
	movq	%rdi, -40(%rbp)
	movq	%rdx, %rcx
	movq	%rsi, %rax
	movq	%rdi, %rdx
	movq	%rcx, %rdx
	movq	%rax, -64(%rbp)
	movq	%rdx, -56(%rbp)
	movq	%fs:40, %rax
	movq	%rax, -24(%rbp)
	xorl	%eax, %eax
	leaq	-64(%rbp), %rax
	movq	%rax, %rdi
	call	_ZNKSt16initializer_listIjE3endEv
	movq	%rax, %rbx
	leaq	-64(%rbp), %rax
	movq	%rax, %rdi
	call	_ZNKSt16initializer_listIjE5beginEv
	movq	%rax, %rcx
	movq	-40(%rbp), %rax
	movq	%rbx, %rdx
	movq	%rcx, %rsi
	movq	%rax, %rdi
	call	_ZNSt6vectorIjSaIjEE13_M_assign_auxIPKjEEvT_S5_St20forward_iterator_tag
	movq	-40(%rbp), %rax
	movq	-24(%rbp), %rdx
	xorq	%fs:40, %rdx
	je	.L82
	call	__stack_chk_fail@PLT
.L82:
	addq	$56, %rsp
	popq	%rbx
	popq	%rbp
	.cfi_def_cfa 7, 8
	ret
	.cfi_endproc
.LFE3592:
	.size	_ZNSt6vectorIjSaIjEEaSESt16initializer_listIjE, .-_ZNSt6vectorIjSaIjEEaSESt16initializer_listIjE
	.section	.text._ZNSt6vectorIjSaIjEE3endEv,"axG",@progbits,_ZNSt6vectorIjSaIjEE3endEv,comdat
	.align 2
	.weak	_ZNSt6vectorIjSaIjEE3endEv
	.type	_ZNSt6vectorIjSaIjEE3endEv, @function
_ZNSt6vectorIjSaIjEE3endEv:
.LFB3593:
	.cfi_startproc
	endbr64
	pushq	%rbp
	.cfi_def_cfa_offset 16
	.cfi_offset 6, -16
	movq	%rsp, %rbp
	.cfi_def_cfa_register 6
	subq	$32, %rsp
	movq	%rdi, -24(%rbp)
	movq	%fs:40, %rax
	movq	%rax, -8(%rbp)
	xorl	%eax, %eax
	movq	-24(%rbp), %rax
	leaq	8(%rax), %rdx
	leaq	-16(%rbp), %rax
	movq	%rdx, %rsi
	movq	%rax, %rdi
	call	_ZN9__gnu_cxx17__normal_iteratorIPjSt6vectorIjSaIjEEEC1ERKS1_
	movq	-16(%rbp), %rax
	movq	-8(%rbp), %rcx
	xorq	%fs:40, %rcx
	je	.L85
	call	__stack_chk_fail@PLT
.L85:
	leave
	.cfi_def_cfa 7, 8
	ret
	.cfi_endproc
.LFE3593:
	.size	_ZNSt6vectorIjSaIjEE3endEv, .-_ZNSt6vectorIjSaIjEE3endEv
	.section	.text._ZN9__gnu_cxx17__normal_iteratorIPKjSt6vectorIjSaIjEEEC2IPjEERKNS0_IT_NS_11__enable_ifIXsrSt10__are_sameIS9_S8_E7__valueES5_E6__typeEEE,"axG",@progbits,_ZN9__gnu_cxx17__normal_iteratorIPKjSt6vectorIjSaIjEEEC5IPjEERKNS0_IT_NS_11__enable_ifIXsrSt10__are_sameIS9_S8_E7__valueES5_E6__typeEEE,comdat
	.align 2
	.weak	_ZN9__gnu_cxx17__normal_iteratorIPKjSt6vectorIjSaIjEEEC2IPjEERKNS0_IT_NS_11__enable_ifIXsrSt10__are_sameIS9_S8_E7__valueES5_E6__typeEEE
	.type	_ZN9__gnu_cxx17__normal_iteratorIPKjSt6vectorIjSaIjEEEC2IPjEERKNS0_IT_NS_11__enable_ifIXsrSt10__are_sameIS9_S8_E7__valueES5_E6__typeEEE, @function
_ZN9__gnu_cxx17__normal_iteratorIPKjSt6vectorIjSaIjEEEC2IPjEERKNS0_IT_NS_11__enable_ifIXsrSt10__are_sameIS9_S8_E7__valueES5_E6__typeEEE:
.LFB3595:
	.cfi_startproc
	endbr64
	pushq	%rbp
	.cfi_def_cfa_offset 16
	.cfi_offset 6, -16
	movq	%rsp, %rbp
	.cfi_def_cfa_register 6
	subq	$16, %rsp
	movq	%rdi, -8(%rbp)
	movq	%rsi, -16(%rbp)
	movq	-16(%rbp), %rax
	movq	%rax, %rdi
	call	_ZNK9__gnu_cxx17__normal_iteratorIPjSt6vectorIjSaIjEEE4baseEv
	movq	(%rax), %rdx
	movq	-8(%rbp), %rax
	movq	%rdx, (%rax)
	nop
	leave
	.cfi_def_cfa 7, 8
	ret
	.cfi_endproc
.LFE3595:
	.size	_ZN9__gnu_cxx17__normal_iteratorIPKjSt6vectorIjSaIjEEEC2IPjEERKNS0_IT_NS_11__enable_ifIXsrSt10__are_sameIS9_S8_E7__valueES5_E6__typeEEE, .-_ZN9__gnu_cxx17__normal_iteratorIPKjSt6vectorIjSaIjEEEC2IPjEERKNS0_IT_NS_11__enable_ifIXsrSt10__are_sameIS9_S8_E7__valueES5_E6__typeEEE
	.weak	_ZN9__gnu_cxx17__normal_iteratorIPKjSt6vectorIjSaIjEEEC1IPjEERKNS0_IT_NS_11__enable_ifIXsrSt10__are_sameIS9_S8_E7__valueES5_E6__typeEEE
	.set	_ZN9__gnu_cxx17__normal_iteratorIPKjSt6vectorIjSaIjEEEC1IPjEERKNS0_IT_NS_11__enable_ifIXsrSt10__are_sameIS9_S8_E7__valueES5_E6__typeEEE,_ZN9__gnu_cxx17__normal_iteratorIPKjSt6vectorIjSaIjEEEC2IPjEERKNS0_IT_NS_11__enable_ifIXsrSt10__are_sameIS9_S8_E7__valueES5_E6__typeEEE
	.section	.text._ZNSt6vectorIjSaIjEE6insertEN9__gnu_cxx17__normal_iteratorIPKjS1_EEmRS4_,"axG",@progbits,_ZNSt6vectorIjSaIjEE6insertEN9__gnu_cxx17__normal_iteratorIPKjS1_EEmRS4_,comdat
	.align 2
	.weak	_ZNSt6vectorIjSaIjEE6insertEN9__gnu_cxx17__normal_iteratorIPKjS1_EEmRS4_
	.type	_ZNSt6vectorIjSaIjEE6insertEN9__gnu_cxx17__normal_iteratorIPKjS1_EEmRS4_, @function
_ZNSt6vectorIjSaIjEE6insertEN9__gnu_cxx17__normal_iteratorIPKjS1_EEmRS4_:
.LFB3597:
	.cfi_startproc
	endbr64
	pushq	%rbp
	.cfi_def_cfa_offset 16
	.cfi_offset 6, -16
	movq	%rsp, %rbp
	.cfi_def_cfa_register 6
	subq	$64, %rsp
	movq	%rdi, -40(%rbp)
	movq	%rsi, -48(%rbp)
	movq	%rdx, -56(%rbp)
	movq	%rcx, -64(%rbp)
	movq	%fs:40, %rax
	movq	%rax, -8(%rbp)
	xorl	%eax, %eax
	movq	-40(%rbp), %rax
	movq	%rax, %rdi
	call	_ZNKSt6vectorIjSaIjEE6cbeginEv
	movq	%rax, -24(%rbp)
	leaq	-24(%rbp), %rdx
	leaq	-48(%rbp), %rax
	movq	%rdx, %rsi
	movq	%rax, %rdi
	call	_ZN9__gnu_cxxmiIPKjSt6vectorIjSaIjEEEENS_17__normal_iteratorIT_T0_E15difference_typeERKS9_SC_
	movq	%rax, -16(%rbp)
	movq	-40(%rbp), %rax
	movq	%rax, %rdi
	call	_ZNSt6vectorIjSaIjEE5beginEv
	movq	%rax, -24(%rbp)
	movq	-16(%rbp), %rdx
	leaq	-24(%rbp), %rax
	movq	%rdx, %rsi
	movq	%rax, %rdi
	call	_ZNK9__gnu_cxx17__normal_iteratorIPjSt6vectorIjSaIjEEEplEl
	movq	%rax, %rsi
	movq	-64(%rbp), %rcx
	movq	-56(%rbp), %rdx
	movq	-40(%rbp), %rax
	movq	%rax, %rdi
	call	_ZNSt6vectorIjSaIjEE14_M_fill_insertEN9__gnu_cxx17__normal_iteratorIPjS1_EEmRKj
	movq	-40(%rbp), %rax
	movq	%rax, %rdi
	call	_ZNSt6vectorIjSaIjEE5beginEv
	movq	%rax, -24(%rbp)
	movq	-16(%rbp), %rdx
	leaq	-24(%rbp), %rax
	movq	%rdx, %rsi
	movq	%rax, %rdi
	call	_ZNK9__gnu_cxx17__normal_iteratorIPjSt6vectorIjSaIjEEEplEl
	movq	-8(%rbp), %rcx
	xorq	%fs:40, %rcx
	je	.L89
	call	__stack_chk_fail@PLT
.L89:
	leave
	.cfi_def_cfa 7, 8
	ret
	.cfi_endproc
.LFE3597:
	.size	_ZNSt6vectorIjSaIjEE6insertEN9__gnu_cxx17__normal_iteratorIPKjS1_EEmRS4_, .-_ZNSt6vectorIjSaIjEE6insertEN9__gnu_cxx17__normal_iteratorIPKjS1_EEmRS4_
	.section	.text._ZN9__gnu_cxx14__alloc_traitsISaIjEjE27_S_propagate_on_copy_assignEv,"axG",@progbits,_ZN9__gnu_cxx14__alloc_traitsISaIjEjE27_S_propagate_on_copy_assignEv,comdat
	.weak	_ZN9__gnu_cxx14__alloc_traitsISaIjEjE27_S_propagate_on_copy_assignEv
	.type	_ZN9__gnu_cxx14__alloc_traitsISaIjEjE27_S_propagate_on_copy_assignEv, @function
_ZN9__gnu_cxx14__alloc_traitsISaIjEjE27_S_propagate_on_copy_assignEv:
.LFB3602:
	.cfi_startproc
	endbr64
	pushq	%rbp
	.cfi_def_cfa_offset 16
	.cfi_offset 6, -16
	movq	%rsp, %rbp
	.cfi_def_cfa_register 6
	movl	$0, %eax
	popq	%rbp
	.cfi_def_cfa 7, 8
	ret
	.cfi_endproc
.LFE3602:
	.size	_ZN9__gnu_cxx14__alloc_traitsISaIjEjE27_S_propagate_on_copy_assignEv, .-_ZN9__gnu_cxx14__alloc_traitsISaIjEjE27_S_propagate_on_copy_assignEv
	.section	.text._ZNSt6vectorIjSaIjEEaSERKS1_,"axG",@progbits,_ZNSt6vectorIjSaIjEEaSERKS1_,comdat
	.align 2
	.weak	_ZNSt6vectorIjSaIjEEaSERKS1_
	.type	_ZNSt6vectorIjSaIjEEaSERKS1_, @function
_ZNSt6vectorIjSaIjEEaSERKS1_:
.LFB3601:
	.cfi_startproc
	endbr64
	pushq	%rbp
	.cfi_def_cfa_offset 16
	.cfi_offset 6, -16
	movq	%rsp, %rbp
	.cfi_def_cfa_register 6
	pushq	%r14
	pushq	%r13
	pushq	%r12
	pushq	%rbx
	subq	$32, %rsp
	.cfi_offset 14, -24
	.cfi_offset 13, -32
	.cfi_offset 12, -40
	.cfi_offset 3, -48
	movq	%rdi, -56(%rbp)
	movq	%rsi, -64(%rbp)
	movq	-64(%rbp), %rax
	cmpq	-56(%rbp), %rax
	je	.L93
	call	_ZN9__gnu_cxx14__alloc_traitsISaIjEjE27_S_propagate_on_copy_assignEv
	testb	%al, %al
	je	.L94
	call	_ZN9__gnu_cxx14__alloc_traitsISaIjEjE15_S_always_equalEv
	xorl	$1, %eax
	testb	%al, %al
	je	.L95
	movq	-64(%rbp), %rax
	movq	%rax, %rdi
	call	_ZNKSt12_Vector_baseIjSaIjEE19_M_get_Tp_allocatorEv
	movq	%rax, %rbx
	movq	-56(%rbp), %rax
	movq	%rax, %rdi
	call	_ZNSt12_Vector_baseIjSaIjEE19_M_get_Tp_allocatorEv
	movq	%rbx, %rsi
	movq	%rax, %rdi
	call	_ZStneRKSaIjES1_
	testb	%al, %al
	je	.L95
	movl	$1, %eax
	jmp	.L96
.L95:
	movl	$0, %eax
.L96:
	testb	%al, %al
	je	.L97
	movq	-56(%rbp), %rax
	movq	%rax, %rdi
	call	_ZNSt6vectorIjSaIjEE5clearEv
	movq	-56(%rbp), %rax
	movq	-56(%rbp), %rdx
	movq	16(%rdx), %rcx
	movq	-56(%rbp), %rdx
	movq	(%rdx), %rdx
	subq	%rdx, %rcx
	movq	%rcx, %rdx
	sarq	$2, %rdx
	movq	%rdx, %rsi
	movq	-56(%rbp), %rdx
	movq	(%rdx), %rcx
	movq	%rsi, %rdx
	movq	%rcx, %rsi
	movq	%rax, %rdi
	call	_ZNSt12_Vector_baseIjSaIjEE13_M_deallocateEPjm
	movq	-56(%rbp), %rax
	movq	$0, (%rax)
	movq	-56(%rbp), %rax
	movq	$0, 8(%rax)
	movq	-56(%rbp), %rax
	movq	$0, 16(%rax)
.L97:
	movq	-64(%rbp), %rax
	movq	%rax, %rdi
	call	_ZNKSt12_Vector_baseIjSaIjEE19_M_get_Tp_allocatorEv
	movq	%rax, %rbx
	movq	-56(%rbp), %rax
	movq	%rax, %rdi
	call	_ZNSt12_Vector_baseIjSaIjEE19_M_get_Tp_allocatorEv
	movq	%rbx, %rsi
	movq	%rax, %rdi
	call	_ZSt15__alloc_on_copyISaIjEEvRT_RKS1_
.L94:
	movq	-64(%rbp), %rax
	movq	%rax, %rdi
	call	_ZNKSt6vectorIjSaIjEE4sizeEv
	movq	%rax, -48(%rbp)
	movq	-56(%rbp), %rax
	movq	%rax, %rdi
	call	_ZNKSt6vectorIjSaIjEE8capacityEv
	cmpq	%rax, -48(%rbp)
	seta	%al
	testb	%al, %al
	je	.L98
	movq	-64(%rbp), %rax
	movq	%rax, %rdi
	call	_ZNKSt6vectorIjSaIjEE3endEv
	movq	%rax, %rbx
	movq	-64(%rbp), %rax
	movq	%rax, %rdi
	call	_ZNKSt6vectorIjSaIjEE5beginEv
	movq	%rax, %rdx
	movq	-48(%rbp), %rsi
	movq	-56(%rbp), %rax
	movq	%rbx, %rcx
	movq	%rax, %rdi
	call	_ZNSt6vectorIjSaIjEE20_M_allocate_and_copyIN9__gnu_cxx17__normal_iteratorIPKjS1_EEEEPjmT_S9_
	movq	%rax, -40(%rbp)
	movq	-56(%rbp), %rax
	movq	%rax, %rdi
	call	_ZNSt12_Vector_baseIjSaIjEE19_M_get_Tp_allocatorEv
	movq	%rax, %rdx
	movq	-56(%rbp), %rax
	movq	8(%rax), %rcx
	movq	-56(%rbp), %rax
	movq	(%rax), %rax
	movq	%rcx, %rsi
	movq	%rax, %rdi
	call	_ZSt8_DestroyIPjjEvT_S1_RSaIT0_E
	movq	-56(%rbp), %rax
	movq	-56(%rbp), %rdx
	movq	16(%rdx), %rcx
	movq	-56(%rbp), %rdx
	movq	(%rdx), %rdx
	subq	%rdx, %rcx
	movq	%rcx, %rdx
	sarq	$2, %rdx
	movq	%rdx, %rsi
	movq	-56(%rbp), %rdx
	movq	(%rdx), %rcx
	movq	%rsi, %rdx
	movq	%rcx, %rsi
	movq	%rax, %rdi
	call	_ZNSt12_Vector_baseIjSaIjEE13_M_deallocateEPjm
	movq	-56(%rbp), %rax
	movq	-40(%rbp), %rdx
	movq	%rdx, (%rax)
	movq	-56(%rbp), %rax
	movq	(%rax), %rax
	movq	-48(%rbp), %rdx
	salq	$2, %rdx
	addq	%rax, %rdx
	movq	-56(%rbp), %rax
	movq	%rdx, 16(%rax)
	jmp	.L99
.L98:
	movq	-56(%rbp), %rax
	movq	%rax, %rdi
	call	_ZNKSt6vectorIjSaIjEE4sizeEv
	cmpq	%rax, -48(%rbp)
	setbe	%al
	testb	%al, %al
	je	.L100
	movq	-56(%rbp), %rax
	movq	%rax, %rdi
	call	_ZNSt12_Vector_baseIjSaIjEE19_M_get_Tp_allocatorEv
	movq	%rax, %r12
	movq	-56(%rbp), %rax
	movq	%rax, %rdi
	call	_ZNSt6vectorIjSaIjEE3endEv
	movq	%rax, %rbx
	movq	-56(%rbp), %rax
	movq	%rax, %rdi
	call	_ZNSt6vectorIjSaIjEE5beginEv
	movq	%rax, %r14
	movq	-64(%rbp), %rax
	movq	%rax, %rdi
	call	_ZNKSt6vectorIjSaIjEE3endEv
	movq	%rax, %r13
	movq	-64(%rbp), %rax
	movq	%rax, %rdi
	call	_ZNKSt6vectorIjSaIjEE5beginEv
	movq	%r14, %rdx
	movq	%r13, %rsi
	movq	%rax, %rdi
	call	_ZSt4copyIN9__gnu_cxx17__normal_iteratorIPKjSt6vectorIjSaIjEEEENS1_IPjS6_EEET0_T_SB_SA_
	movq	%r12, %rdx
	movq	%rbx, %rsi
	movq	%rax, %rdi
	call	_ZSt8_DestroyIN9__gnu_cxx17__normal_iteratorIPjSt6vectorIjSaIjEEEEjEvT_S7_RSaIT0_E
	jmp	.L99
.L100:
	movq	-56(%rbp), %rax
	movq	(%rax), %rbx
	movq	-64(%rbp), %rax
	movq	(%rax), %r12
	movq	-56(%rbp), %rax
	movq	%rax, %rdi
	call	_ZNKSt6vectorIjSaIjEE4sizeEv
	salq	$2, %rax
	leaq	(%r12,%rax), %rcx
	movq	-64(%rbp), %rax
	movq	(%rax), %rax
	movq	%rbx, %rdx
	movq	%rcx, %rsi
	movq	%rax, %rdi
	call	_ZSt4copyIPjS0_ET0_T_S2_S1_
	movq	-56(%rbp), %rax
	movq	%rax, %rdi
	call	_ZNSt12_Vector_baseIjSaIjEE19_M_get_Tp_allocatorEv
	movq	%rax, %r13
	movq	-56(%rbp), %rax
	movq	8(%rax), %r12
	movq	-64(%rbp), %rax
	movq	8(%rax), %rbx
	movq	-64(%rbp), %rax
	movq	(%rax), %r14
	movq	-56(%rbp), %rax
	movq	%rax, %rdi
	call	_ZNKSt6vectorIjSaIjEE4sizeEv
	salq	$2, %rax
	addq	%r14, %rax
	movq	%r13, %rcx
	movq	%r12, %rdx
	movq	%rbx, %rsi
	movq	%rax, %rdi
	call	_ZSt22__uninitialized_copy_aIPjS0_jET0_T_S2_S1_RSaIT1_E
.L99:
	movq	-56(%rbp), %rax
	movq	(%rax), %rax
	movq	-48(%rbp), %rdx
	salq	$2, %rdx
	addq	%rax, %rdx
	movq	-56(%rbp), %rax
	movq	%rdx, 8(%rax)
.L93:
	movq	-56(%rbp), %rax
	addq	$32, %rsp
	popq	%rbx
	popq	%r12
	popq	%r13
	popq	%r14
	popq	%rbp
	.cfi_def_cfa 7, 8
	ret
	.cfi_endproc
.LFE3601:
	.size	_ZNSt6vectorIjSaIjEEaSERKS1_, .-_ZNSt6vectorIjSaIjEEaSERKS1_
	.section	.text._ZNSaIjEC2Ev,"axG",@progbits,_ZNSaIjEC5Ev,comdat
	.align 2
	.weak	_ZNSaIjEC2Ev
	.type	_ZNSaIjEC2Ev, @function
_ZNSaIjEC2Ev:
.LFB3604:
	.cfi_startproc
	endbr64
	pushq	%rbp
	.cfi_def_cfa_offset 16
	.cfi_offset 6, -16
	movq	%rsp, %rbp
	.cfi_def_cfa_register 6
	subq	$16, %rsp
	movq	%rdi, -8(%rbp)
	movq	-8(%rbp), %rax
	movq	%rax, %rdi
	call	_ZN9__gnu_cxx13new_allocatorIjEC2Ev
	nop
	leave
	.cfi_def_cfa 7, 8
	ret
	.cfi_endproc
.LFE3604:
	.size	_ZNSaIjEC2Ev, .-_ZNSaIjEC2Ev
	.weak	_ZNSaIjEC1Ev
	.set	_ZNSaIjEC1Ev,_ZNSaIjEC2Ev
	.section	.text._ZNSt6vectorIjSaIjEEC2ESt16initializer_listIjERKS0_,"axG",@progbits,_ZNSt6vectorIjSaIjEEC5ESt16initializer_listIjERKS0_,comdat
	.align 2
	.weak	_ZNSt6vectorIjSaIjEEC2ESt16initializer_listIjERKS0_
	.type	_ZNSt6vectorIjSaIjEEC2ESt16initializer_listIjERKS0_, @function
_ZNSt6vectorIjSaIjEEC2ESt16initializer_listIjERKS0_:
.LFB3607:
	.cfi_startproc
	.cfi_personality 0x9b,DW.ref.__gxx_personality_v0
	.cfi_lsda 0x1b,.LLSDA3607
	endbr64
	pushq	%rbp
	.cfi_def_cfa_offset 16
	.cfi_offset 6, -16
	movq	%rsp, %rbp
	.cfi_def_cfa_register 6
	pushq	%rbx
	subq	$56, %rsp
	.cfi_offset 3, -24
	movq	%rdi, -40(%rbp)
	movq	%rsi, %rax
	movq	%rdx, %rsi
	movq	%rsi, %rdx
	movq	%rax, -64(%rbp)
	movq	%rdx, -56(%rbp)
	movq	%rcx, -48(%rbp)
	movq	%fs:40, %rax
	movq	%rax, -24(%rbp)
	xorl	%eax, %eax
	movq	-40(%rbp), %rax
	movq	-48(%rbp), %rdx
	movq	%rdx, %rsi
	movq	%rax, %rdi
	call	_ZNSt12_Vector_baseIjSaIjEEC2ERKS0_
	leaq	-64(%rbp), %rax
	movq	%rax, %rdi
	call	_ZNKSt16initializer_listIjE3endEv
	movq	%rax, %rbx
	leaq	-64(%rbp), %rax
	movq	%rax, %rdi
	call	_ZNKSt16initializer_listIjE5beginEv
	movq	%rax, %rcx
	movq	-40(%rbp), %rax
	movq	%rbx, %rdx
	movq	%rcx, %rsi
	movq	%rax, %rdi
.LEHB10:
	call	_ZNSt6vectorIjSaIjEE19_M_range_initializeIPKjEEvT_S5_St20forward_iterator_tag
.LEHE10:
	jmp	.L107
.L106:
	endbr64
	movq	%rax, %rbx
	movq	-40(%rbp), %rax
	movq	%rax, %rdi
	call	_ZNSt12_Vector_baseIjSaIjEED2Ev
	movq	%rbx, %rax
	movq	%rax, %rdi
.LEHB11:
	call	_Unwind_Resume@PLT
.LEHE11:
.L107:
	movq	-24(%rbp), %rax
	xorq	%fs:40, %rax
	je	.L105
	call	__stack_chk_fail@PLT
.L105:
	addq	$56, %rsp
	popq	%rbx
	popq	%rbp
	.cfi_def_cfa 7, 8
	ret
	.cfi_endproc
.LFE3607:
	.section	.gcc_except_table
.LLSDA3607:
	.byte	0xff
	.byte	0xff
	.byte	0x1
	.uleb128 .LLSDACSE3607-.LLSDACSB3607
.LLSDACSB3607:
	.uleb128 .LEHB10-.LFB3607
	.uleb128 .LEHE10-.LEHB10
	.uleb128 .L106-.LFB3607
	.uleb128 0
	.uleb128 .LEHB11-.LFB3607
	.uleb128 .LEHE11-.LEHB11
	.uleb128 0
	.uleb128 0
.LLSDACSE3607:
	.section	.text._ZNSt6vectorIjSaIjEEC2ESt16initializer_listIjERKS0_,"axG",@progbits,_ZNSt6vectorIjSaIjEEC5ESt16initializer_listIjERKS0_,comdat
	.size	_ZNSt6vectorIjSaIjEEC2ESt16initializer_listIjERKS0_, .-_ZNSt6vectorIjSaIjEEC2ESt16initializer_listIjERKS0_
	.weak	_ZNSt6vectorIjSaIjEEC1ESt16initializer_listIjERKS0_
	.set	_ZNSt6vectorIjSaIjEEC1ESt16initializer_listIjERKS0_,_ZNSt6vectorIjSaIjEEC2ESt16initializer_listIjERKS0_
	.section	.text._ZNSt6vectorIjSaIjEEaSEOS1_,"axG",@progbits,_ZNSt6vectorIjSaIjEEaSEOS1_,comdat
	.align 2
	.weak	_ZNSt6vectorIjSaIjEEaSEOS1_
	.type	_ZNSt6vectorIjSaIjEEaSEOS1_, @function
_ZNSt6vectorIjSaIjEEaSEOS1_:
.LFB3609:
	.cfi_startproc
	endbr64
	pushq	%rbp
	.cfi_def_cfa_offset 16
	.cfi_offset 6, -16
	movq	%rsp, %rbp
	.cfi_def_cfa_register 6
	subq	$32, %rsp
	movq	%rdi, -24(%rbp)
	movq	%rsi, -32(%rbp)
	movq	%fs:40, %rax
	movq	%rax, -8(%rbp)
	xorl	%eax, %eax
	movb	$1, -9(%rbp)
	movq	-32(%rbp), %rax
	movq	%rax, %rdi
	call	_ZSt4moveIRSt6vectorIjSaIjEEEONSt16remove_referenceIT_E4typeEOS5_
	movq	%rax, %rdx
	movq	-24(%rbp), %rax
	movq	%rdx, %rsi
	movq	%rax, %rdi
	call	_ZNSt6vectorIjSaIjEE14_M_move_assignEOS1_St17integral_constantIbLb1EE
	movq	-24(%rbp), %rax
	movq	-8(%rbp), %rcx
	xorq	%fs:40, %rcx
	je	.L110
	call	__stack_chk_fail@PLT
.L110:
	leave
	.cfi_def_cfa 7, 8
	ret
	.cfi_endproc
.LFE3609:
	.size	_ZNSt6vectorIjSaIjEEaSEOS1_, .-_ZNSt6vectorIjSaIjEEaSEOS1_
	.section	.text._ZNSt6chronomiINS_3_V212steady_clockENS_8durationIlSt5ratioILl1ELl1000000000EEEES6_EENSt11common_typeIJT0_T1_EE4typeERKNS_10time_pointIT_S8_EERKNSC_ISD_S9_EE,"axG",@progbits,_ZNSt6chronomiINS_3_V212steady_clockENS_8durationIlSt5ratioILl1ELl1000000000EEEES6_EENSt11common_typeIJT0_T1_EE4typeERKNS_10time_pointIT_S8_EERKNSC_ISD_S9_EE,comdat
	.weak	_ZNSt6chronomiINS_3_V212steady_clockENS_8durationIlSt5ratioILl1ELl1000000000EEEES6_EENSt11common_typeIJT0_T1_EE4typeERKNS_10time_pointIT_S8_EERKNSC_ISD_S9_EE
	.type	_ZNSt6chronomiINS_3_V212steady_clockENS_8durationIlSt5ratioILl1ELl1000000000EEEES6_EENSt11common_typeIJT0_T1_EE4typeERKNS_10time_pointIT_S8_EERKNSC_ISD_S9_EE, @function
_ZNSt6chronomiINS_3_V212steady_clockENS_8durationIlSt5ratioILl1ELl1000000000EEEES6_EENSt11common_typeIJT0_T1_EE4typeERKNS_10time_pointIT_S8_EERKNSC_ISD_S9_EE:
.LFB3611:
	.cfi_startproc
	endbr64
	pushq	%rbp
	.cfi_def_cfa_offset 16
	.cfi_offset 6, -16
	movq	%rsp, %rbp
	.cfi_def_cfa_register 6
	subq	$48, %rsp
	movq	%rdi, -40(%rbp)
	movq	%rsi, -48(%rbp)
	movq	%fs:40, %rax
	movq	%rax, -8(%rbp)
	xorl	%eax, %eax
	movq	-48(%rbp), %rax
	movq	%rax, %rdi
	call	_ZNKSt6chrono10time_pointINS_3_V212steady_clockENS_8durationIlSt5ratioILl1ELl1000000000EEEEE16time_since_epochEv
	movq	%rax, -16(%rbp)
	movq	-40(%rbp), %rax
	movq	%rax, %rdi
	call	_ZNKSt6chrono10time_pointINS_3_V212steady_clockENS_8durationIlSt5ratioILl1ELl1000000000EEEEE16time_since_epochEv
	movq	%rax, -24(%rbp)
	leaq	-16(%rbp), %rdx
	leaq	-24(%rbp), %rax
	movq	%rdx, %rsi
	movq	%rax, %rdi
	call	_ZNSt6chronomiIlSt5ratioILl1ELl1000000000EElS2_EENSt11common_typeIJNS_8durationIT_T0_EENS4_IT1_T2_EEEE4typeERKS7_RKSA_
	movq	-8(%rbp), %rcx
	xorq	%fs:40, %rcx
	je	.L113
	call	__stack_chk_fail@PLT
.L113:
	leave
	.cfi_def_cfa 7, 8
	ret
	.cfi_endproc
.LFE3611:
	.size	_ZNSt6chronomiINS_3_V212steady_clockENS_8durationIlSt5ratioILl1ELl1000000000EEEES6_EENSt11common_typeIJT0_T1_EE4typeERKNS_10time_pointIT_S8_EERKNSC_ISD_S9_EE, .-_ZNSt6chronomiINS_3_V212steady_clockENS_8durationIlSt5ratioILl1ELl1000000000EEEES6_EENSt11common_typeIJT0_T1_EE4typeERKNS_10time_pointIT_S8_EERKNSC_ISD_S9_EE
	.section	.text._ZNSt6chrono13duration_castINS_8durationIlSt5ratioILl1ELl1000EEEElS2_ILl1ELl1000000000EEEENSt9enable_ifIXsrNS_13__is_durationIT_EE5valueES8_E4typeERKNS1_IT0_T1_EE,"axG",@progbits,_ZNSt6chrono13duration_castINS_8durationIlSt5ratioILl1ELl1000EEEElS2_ILl1ELl1000000000EEEENSt9enable_ifIXsrNS_13__is_durationIT_EE5valueES8_E4typeERKNS1_IT0_T1_EE,comdat
	.weak	_ZNSt6chrono13duration_castINS_8durationIlSt5ratioILl1ELl1000EEEElS2_ILl1ELl1000000000EEEENSt9enable_ifIXsrNS_13__is_durationIT_EE5valueES8_E4typeERKNS1_IT0_T1_EE
	.type	_ZNSt6chrono13duration_castINS_8durationIlSt5ratioILl1ELl1000EEEElS2_ILl1ELl1000000000EEEENSt9enable_ifIXsrNS_13__is_durationIT_EE5valueES8_E4typeERKNS1_IT0_T1_EE, @function
_ZNSt6chrono13duration_castINS_8durationIlSt5ratioILl1ELl1000EEEElS2_ILl1ELl1000000000EEEENSt9enable_ifIXsrNS_13__is_durationIT_EE5valueES8_E4typeERKNS1_IT0_T1_EE:
.LFB3612:
	.cfi_startproc
	endbr64
	pushq	%rbp
	.cfi_def_cfa_offset 16
	.cfi_offset 6, -16
	movq	%rsp, %rbp
	.cfi_def_cfa_register 6
	subq	$16, %rsp
	movq	%rdi, -8(%rbp)
	movq	-8(%rbp), %rax
	movq	%rax, %rdi
	call	_ZNSt6chrono20__duration_cast_implINS_8durationIlSt5ratioILl1ELl1000EEEES2_ILl1ELl1000000EElLb1ELb0EE6__castIlS2_ILl1ELl1000000000EEEES4_RKNS1_IT_T0_EE
	leave
	.cfi_def_cfa 7, 8
	ret
	.cfi_endproc
.LFE3612:
	.size	_ZNSt6chrono13duration_castINS_8durationIlSt5ratioILl1ELl1000EEEElS2_ILl1ELl1000000000EEEENSt9enable_ifIXsrNS_13__is_durationIT_EE5valueES8_E4typeERKNS1_IT0_T1_EE, .-_ZNSt6chrono13duration_castINS_8durationIlSt5ratioILl1ELl1000EEEElS2_ILl1ELl1000000000EEEENSt9enable_ifIXsrNS_13__is_durationIT_EE5valueES8_E4typeERKNS1_IT0_T1_EE
	.section	.text._ZNKSt6chrono8durationIlSt5ratioILl1ELl1000EEE5countEv,"axG",@progbits,_ZNKSt6chrono8durationIlSt5ratioILl1ELl1000EEE5countEv,comdat
	.align 2
	.weak	_ZNKSt6chrono8durationIlSt5ratioILl1ELl1000EEE5countEv
	.type	_ZNKSt6chrono8durationIlSt5ratioILl1ELl1000EEE5countEv, @function
_ZNKSt6chrono8durationIlSt5ratioILl1ELl1000EEE5countEv:
.LFB3613:
	.cfi_startproc
	endbr64
	pushq	%rbp
	.cfi_def_cfa_offset 16
	.cfi_offset 6, -16
	movq	%rsp, %rbp
	.cfi_def_cfa_register 6
	movq	%rdi, -8(%rbp)
	movq	-8(%rbp), %rax
	movq	(%rax), %rax
	popq	%rbp
	.cfi_def_cfa 7, 8
	ret
	.cfi_endproc
.LFE3613:
	.size	_ZNKSt6chrono8durationIlSt5ratioILl1ELl1000EEE5countEv, .-_ZNKSt6chrono8durationIlSt5ratioILl1ELl1000EEE5countEv
	.section	.text._ZNSt12_Vector_baseIjSaIjEE17_Vector_impl_dataC2Ev,"axG",@progbits,_ZNSt12_Vector_baseIjSaIjEE17_Vector_impl_dataC5Ev,comdat
	.align 2
	.weak	_ZNSt12_Vector_baseIjSaIjEE17_Vector_impl_dataC2Ev
	.type	_ZNSt12_Vector_baseIjSaIjEE17_Vector_impl_dataC2Ev, @function
_ZNSt12_Vector_baseIjSaIjEE17_Vector_impl_dataC2Ev:
.LFB3726:
	.cfi_startproc
	endbr64
	pushq	%rbp
	.cfi_def_cfa_offset 16
	.cfi_offset 6, -16
	movq	%rsp, %rbp
	.cfi_def_cfa_register 6
	movq	%rdi, -8(%rbp)
	movq	-8(%rbp), %rax
	movq	$0, (%rax)
	movq	-8(%rbp), %rax
	movq	$0, 8(%rax)
	movq	-8(%rbp), %rax
	movq	$0, 16(%rax)
	nop
	popq	%rbp
	.cfi_def_cfa 7, 8
	ret
	.cfi_endproc
.LFE3726:
	.size	_ZNSt12_Vector_baseIjSaIjEE17_Vector_impl_dataC2Ev, .-_ZNSt12_Vector_baseIjSaIjEE17_Vector_impl_dataC2Ev
	.weak	_ZNSt12_Vector_baseIjSaIjEE17_Vector_impl_dataC1Ev
	.set	_ZNSt12_Vector_baseIjSaIjEE17_Vector_impl_dataC1Ev,_ZNSt12_Vector_baseIjSaIjEE17_Vector_impl_dataC2Ev
	.section	.text._ZN9__gnu_cxx13new_allocatorIjED2Ev,"axG",@progbits,_ZN9__gnu_cxx13new_allocatorIjED5Ev,comdat
	.align 2
	.weak	_ZN9__gnu_cxx13new_allocatorIjED2Ev
	.type	_ZN9__gnu_cxx13new_allocatorIjED2Ev, @function
_ZN9__gnu_cxx13new_allocatorIjED2Ev:
.LFB3729:
	.cfi_startproc
	endbr64
	pushq	%rbp
	.cfi_def_cfa_offset 16
	.cfi_offset 6, -16
	movq	%rsp, %rbp
	.cfi_def_cfa_register 6
	movq	%rdi, -8(%rbp)
	nop
	popq	%rbp
	.cfi_def_cfa 7, 8
	ret
	.cfi_endproc
.LFE3729:
	.size	_ZN9__gnu_cxx13new_allocatorIjED2Ev, .-_ZN9__gnu_cxx13new_allocatorIjED2Ev
	.weak	_ZN9__gnu_cxx13new_allocatorIjED1Ev
	.set	_ZN9__gnu_cxx13new_allocatorIjED1Ev,_ZN9__gnu_cxx13new_allocatorIjED2Ev
	.section	.text._ZNSt12_Vector_baseIjSaIjEE13_M_deallocateEPjm,"axG",@progbits,_ZNSt12_Vector_baseIjSaIjEE13_M_deallocateEPjm,comdat
	.align 2
	.weak	_ZNSt12_Vector_baseIjSaIjEE13_M_deallocateEPjm
	.type	_ZNSt12_Vector_baseIjSaIjEE13_M_deallocateEPjm, @function
_ZNSt12_Vector_baseIjSaIjEE13_M_deallocateEPjm:
.LFB3731:
	.cfi_startproc
	endbr64
	pushq	%rbp
	.cfi_def_cfa_offset 16
	.cfi_offset 6, -16
	movq	%rsp, %rbp
	.cfi_def_cfa_register 6
	subq	$32, %rsp
	movq	%rdi, -8(%rbp)
	movq	%rsi, -16(%rbp)
	movq	%rdx, -24(%rbp)
	cmpq	$0, -16(%rbp)
	je	.L122
	movq	-8(%rbp), %rax
	movq	-24(%rbp), %rdx
	movq	-16(%rbp), %rcx
	movq	%rcx, %rsi
	movq	%rax, %rdi
	call	_ZNSt16allocator_traitsISaIjEE10deallocateERS0_Pjm
.L122:
	nop
	leave
	.cfi_def_cfa 7, 8
	ret
	.cfi_endproc
.LFE3731:
	.size	_ZNSt12_Vector_baseIjSaIjEE13_M_deallocateEPjm, .-_ZNSt12_Vector_baseIjSaIjEE13_M_deallocateEPjm
	.section	.text._ZNSt12_Vector_baseIjSaIjEE19_M_get_Tp_allocatorEv,"axG",@progbits,_ZNSt12_Vector_baseIjSaIjEE19_M_get_Tp_allocatorEv,comdat
	.align 2
	.weak	_ZNSt12_Vector_baseIjSaIjEE19_M_get_Tp_allocatorEv
	.type	_ZNSt12_Vector_baseIjSaIjEE19_M_get_Tp_allocatorEv, @function
_ZNSt12_Vector_baseIjSaIjEE19_M_get_Tp_allocatorEv:
.LFB3732:
	.cfi_startproc
	endbr64
	pushq	%rbp
	.cfi_def_cfa_offset 16
	.cfi_offset 6, -16
	movq	%rsp, %rbp
	.cfi_def_cfa_register 6
	movq	%rdi, -8(%rbp)
	movq	-8(%rbp), %rax
	popq	%rbp
	.cfi_def_cfa 7, 8
	ret
	.cfi_endproc
.LFE3732:
	.size	_ZNSt12_Vector_baseIjSaIjEE19_M_get_Tp_allocatorEv, .-_ZNSt12_Vector_baseIjSaIjEE19_M_get_Tp_allocatorEv
	.section	.text._ZSt8_DestroyIPjjEvT_S1_RSaIT0_E,"axG",@progbits,_ZSt8_DestroyIPjjEvT_S1_RSaIT0_E,comdat
	.weak	_ZSt8_DestroyIPjjEvT_S1_RSaIT0_E
	.type	_ZSt8_DestroyIPjjEvT_S1_RSaIT0_E, @function
_ZSt8_DestroyIPjjEvT_S1_RSaIT0_E:
.LFB3733:
	.cfi_startproc
	endbr64
	pushq	%rbp
	.cfi_def_cfa_offset 16
	.cfi_offset 6, -16
	movq	%rsp, %rbp
	.cfi_def_cfa_register 6
	subq	$32, %rsp
	movq	%rdi, -8(%rbp)
	movq	%rsi, -16(%rbp)
	movq	%rdx, -24(%rbp)
	movq	-16(%rbp), %rdx
	movq	-8(%rbp), %rax
	movq	%rdx, %rsi
	movq	%rax, %rdi
	call	_ZSt8_DestroyIPjEvT_S1_
	nop
	leave
	.cfi_def_cfa 7, 8
	ret
	.cfi_endproc
.LFE3733:
	.size	_ZSt8_DestroyIPjjEvT_S1_RSaIT0_E, .-_ZSt8_DestroyIPjjEvT_S1_RSaIT0_E
	.section	.text._ZSt4moveIRjEONSt16remove_referenceIT_E4typeEOS2_,"axG",@progbits,_ZSt4moveIRjEONSt16remove_referenceIT_E4typeEOS2_,comdat
	.weak	_ZSt4moveIRjEONSt16remove_referenceIT_E4typeEOS2_
	.type	_ZSt4moveIRjEONSt16remove_referenceIT_E4typeEOS2_, @function
_ZSt4moveIRjEONSt16remove_referenceIT_E4typeEOS2_:
.LFB3740:
	.cfi_startproc
	endbr64
	pushq	%rbp
	.cfi_def_cfa_offset 16
	.cfi_offset 6, -16
	movq	%rsp, %rbp
	.cfi_def_cfa_register 6
	movq	%rdi, -8(%rbp)
	movq	-8(%rbp), %rax
	popq	%rbp
	.cfi_def_cfa 7, 8
	ret
	.cfi_endproc
.LFE3740:
	.size	_ZSt4moveIRjEONSt16remove_referenceIT_E4typeEOS2_, .-_ZSt4moveIRjEONSt16remove_referenceIT_E4typeEOS2_
	.section	.text._ZNSt6vectorIjSaIjEE12emplace_backIJjEEEvDpOT_,"axG",@progbits,_ZNSt6vectorIjSaIjEE12emplace_backIJjEEEvDpOT_,comdat
	.align 2
	.weak	_ZNSt6vectorIjSaIjEE12emplace_backIJjEEEvDpOT_
	.type	_ZNSt6vectorIjSaIjEE12emplace_backIJjEEEvDpOT_, @function
_ZNSt6vectorIjSaIjEE12emplace_backIJjEEEvDpOT_:
.LFB3741:
	.cfi_startproc
	endbr64
	pushq	%rbp
	.cfi_def_cfa_offset 16
	.cfi_offset 6, -16
	movq	%rsp, %rbp
	.cfi_def_cfa_register 6
	pushq	%rbx
	subq	$24, %rsp
	.cfi_offset 3, -24
	movq	%rdi, -24(%rbp)
	movq	%rsi, -32(%rbp)
	movq	-24(%rbp), %rax
	movq	8(%rax), %rdx
	movq	-24(%rbp), %rax
	movq	16(%rax), %rax
	cmpq	%rax, %rdx
	je	.L129
	movq	-32(%rbp), %rax
	movq	%rax, %rdi
	call	_ZSt7forwardIjEOT_RNSt16remove_referenceIS0_E4typeE
	movq	%rax, %rdx
	movq	-24(%rbp), %rax
	movq	8(%rax), %rcx
	movq	-24(%rbp), %rax
	movq	%rcx, %rsi
	movq	%rax, %rdi
	call	_ZNSt16allocator_traitsISaIjEE9constructIjJjEEEvRS0_PT_DpOT0_
	movq	-24(%rbp), %rax
	movq	8(%rax), %rax
	leaq	4(%rax), %rdx
	movq	-24(%rbp), %rax
	movq	%rdx, 8(%rax)
	jmp	.L131
.L129:
	movq	-32(%rbp), %rax
	movq	%rax, %rdi
	call	_ZSt7forwardIjEOT_RNSt16remove_referenceIS0_E4typeE
	movq	%rax, %rbx
	movq	-24(%rbp), %rax
	movq	%rax, %rdi
	call	_ZNSt6vectorIjSaIjEE3endEv
	movq	%rax, %rcx
	movq	-24(%rbp), %rax
	movq	%rbx, %rdx
	movq	%rcx, %rsi
	movq	%rax, %rdi
	call	_ZNSt6vectorIjSaIjEE17_M_realloc_insertIJjEEEvN9__gnu_cxx17__normal_iteratorIPjS1_EEDpOT_
.L131:
	nop
	addq	$24, %rsp
	popq	%rbx
	popq	%rbp
	.cfi_def_cfa 7, 8
	ret
	.cfi_endproc
.LFE3741:
	.size	_ZNSt6vectorIjSaIjEE12emplace_backIJjEEEvDpOT_, .-_ZNSt6vectorIjSaIjEE12emplace_backIJjEEEvDpOT_
	.section	.text._ZNSaI6BigIntEC2Ev,"axG",@progbits,_ZNSaI6BigIntEC5Ev,comdat
	.align 2
	.weak	_ZNSaI6BigIntEC2Ev
	.type	_ZNSaI6BigIntEC2Ev, @function
_ZNSaI6BigIntEC2Ev:
.LFB3743:
	.cfi_startproc
	endbr64
	pushq	%rbp
	.cfi_def_cfa_offset 16
	.cfi_offset 6, -16
	movq	%rsp, %rbp
	.cfi_def_cfa_register 6
	subq	$16, %rsp
	movq	%rdi, -8(%rbp)
	movq	-8(%rbp), %rax
	movq	%rax, %rdi
	call	_ZN9__gnu_cxx13new_allocatorI6BigIntEC2Ev
	nop
	leave
	.cfi_def_cfa 7, 8
	ret
	.cfi_endproc
.LFE3743:
	.size	_ZNSaI6BigIntEC2Ev, .-_ZNSaI6BigIntEC2Ev
	.weak	_ZNSaI6BigIntEC1Ev
	.set	_ZNSaI6BigIntEC1Ev,_ZNSaI6BigIntEC2Ev
	.section	.text._ZNSt12_Vector_baseI6BigIntSaIS0_EE17_Vector_impl_dataC2Ev,"axG",@progbits,_ZNSt12_Vector_baseI6BigIntSaIS0_EE17_Vector_impl_dataC5Ev,comdat
	.align 2
	.weak	_ZNSt12_Vector_baseI6BigIntSaIS0_EE17_Vector_impl_dataC2Ev
	.type	_ZNSt12_Vector_baseI6BigIntSaIS0_EE17_Vector_impl_dataC2Ev, @function
_ZNSt12_Vector_baseI6BigIntSaIS0_EE17_Vector_impl_dataC2Ev:
.LFB3746:
	.cfi_startproc
	endbr64
	pushq	%rbp
	.cfi_def_cfa_offset 16
	.cfi_offset 6, -16
	movq	%rsp, %rbp
	.cfi_def_cfa_register 6
	movq	%rdi, -8(%rbp)
	movq	-8(%rbp), %rax
	movq	$0, (%rax)
	movq	-8(%rbp), %rax
	movq	$0, 8(%rax)
	movq	-8(%rbp), %rax
	movq	$0, 16(%rax)
	nop
	popq	%rbp
	.cfi_def_cfa 7, 8
	ret
	.cfi_endproc
.LFE3746:
	.size	_ZNSt12_Vector_baseI6BigIntSaIS0_EE17_Vector_impl_dataC2Ev, .-_ZNSt12_Vector_baseI6BigIntSaIS0_EE17_Vector_impl_dataC2Ev
	.weak	_ZNSt12_Vector_baseI6BigIntSaIS0_EE17_Vector_impl_dataC1Ev
	.set	_ZNSt12_Vector_baseI6BigIntSaIS0_EE17_Vector_impl_dataC1Ev,_ZNSt12_Vector_baseI6BigIntSaIS0_EE17_Vector_impl_dataC2Ev
	.section	.text._ZN9__gnu_cxx13new_allocatorI6BigIntED2Ev,"axG",@progbits,_ZN9__gnu_cxx13new_allocatorI6BigIntED5Ev,comdat
	.align 2
	.weak	_ZN9__gnu_cxx13new_allocatorI6BigIntED2Ev
	.type	_ZN9__gnu_cxx13new_allocatorI6BigIntED2Ev, @function
_ZN9__gnu_cxx13new_allocatorI6BigIntED2Ev:
.LFB3749:
	.cfi_startproc
	endbr64
	pushq	%rbp
	.cfi_def_cfa_offset 16
	.cfi_offset 6, -16
	movq	%rsp, %rbp
	.cfi_def_cfa_register 6
	movq	%rdi, -8(%rbp)
	nop
	popq	%rbp
	.cfi_def_cfa 7, 8
	ret
	.cfi_endproc
.LFE3749:
	.size	_ZN9__gnu_cxx13new_allocatorI6BigIntED2Ev, .-_ZN9__gnu_cxx13new_allocatorI6BigIntED2Ev
	.weak	_ZN9__gnu_cxx13new_allocatorI6BigIntED1Ev
	.set	_ZN9__gnu_cxx13new_allocatorI6BigIntED1Ev,_ZN9__gnu_cxx13new_allocatorI6BigIntED2Ev
	.section	.text._ZNSt12_Vector_baseI6BigIntSaIS0_EE13_M_deallocateEPS0_m,"axG",@progbits,_ZNSt12_Vector_baseI6BigIntSaIS0_EE13_M_deallocateEPS0_m,comdat
	.align 2
	.weak	_ZNSt12_Vector_baseI6BigIntSaIS0_EE13_M_deallocateEPS0_m
	.type	_ZNSt12_Vector_baseI6BigIntSaIS0_EE13_M_deallocateEPS0_m, @function
_ZNSt12_Vector_baseI6BigIntSaIS0_EE13_M_deallocateEPS0_m:
.LFB3751:
	.cfi_startproc
	endbr64
	pushq	%rbp
	.cfi_def_cfa_offset 16
	.cfi_offset 6, -16
	movq	%rsp, %rbp
	.cfi_def_cfa_register 6
	subq	$32, %rsp
	movq	%rdi, -8(%rbp)
	movq	%rsi, -16(%rbp)
	movq	%rdx, -24(%rbp)
	cmpq	$0, -16(%rbp)
	je	.L137
	movq	-8(%rbp), %rax
	movq	-24(%rbp), %rdx
	movq	-16(%rbp), %rcx
	movq	%rcx, %rsi
	movq	%rax, %rdi
	call	_ZNSt16allocator_traitsISaI6BigIntEE10deallocateERS1_PS0_m
.L137:
	nop
	leave
	.cfi_def_cfa 7, 8
	ret
	.cfi_endproc
.LFE3751:
	.size	_ZNSt12_Vector_baseI6BigIntSaIS0_EE13_M_deallocateEPS0_m, .-_ZNSt12_Vector_baseI6BigIntSaIS0_EE13_M_deallocateEPS0_m
	.section	.text._ZNSt12_Vector_baseI6BigIntSaIS0_EE19_M_get_Tp_allocatorEv,"axG",@progbits,_ZNSt12_Vector_baseI6BigIntSaIS0_EE19_M_get_Tp_allocatorEv,comdat
	.align 2
	.weak	_ZNSt12_Vector_baseI6BigIntSaIS0_EE19_M_get_Tp_allocatorEv
	.type	_ZNSt12_Vector_baseI6BigIntSaIS0_EE19_M_get_Tp_allocatorEv, @function
_ZNSt12_Vector_baseI6BigIntSaIS0_EE19_M_get_Tp_allocatorEv:
.LFB3752:
	.cfi_startproc
	endbr64
	pushq	%rbp
	.cfi_def_cfa_offset 16
	.cfi_offset 6, -16
	movq	%rsp, %rbp
	.cfi_def_cfa_register 6
	movq	%rdi, -8(%rbp)
	movq	-8(%rbp), %rax
	popq	%rbp
	.cfi_def_cfa 7, 8
	ret
	.cfi_endproc
.LFE3752:
	.size	_ZNSt12_Vector_baseI6BigIntSaIS0_EE19_M_get_Tp_allocatorEv, .-_ZNSt12_Vector_baseI6BigIntSaIS0_EE19_M_get_Tp_allocatorEv
	.section	.text._ZSt8_DestroyIP6BigIntS0_EvT_S2_RSaIT0_E,"axG",@progbits,_ZSt8_DestroyIP6BigIntS0_EvT_S2_RSaIT0_E,comdat
	.weak	_ZSt8_DestroyIP6BigIntS0_EvT_S2_RSaIT0_E
	.type	_ZSt8_DestroyIP6BigIntS0_EvT_S2_RSaIT0_E, @function
_ZSt8_DestroyIP6BigIntS0_EvT_S2_RSaIT0_E:
.LFB3753:
	.cfi_startproc
	endbr64
	pushq	%rbp
	.cfi_def_cfa_offset 16
	.cfi_offset 6, -16
	movq	%rsp, %rbp
	.cfi_def_cfa_register 6
	subq	$32, %rsp
	movq	%rdi, -8(%rbp)
	movq	%rsi, -16(%rbp)
	movq	%rdx, -24(%rbp)
	movq	-16(%rbp), %rdx
	movq	-8(%rbp), %rax
	movq	%rdx, %rsi
	movq	%rax, %rdi
	call	_ZSt8_DestroyIP6BigIntEvT_S2_
	nop
	leave
	.cfi_def_cfa 7, 8
	ret
	.cfi_endproc
.LFE3753:
	.size	_ZSt8_DestroyIP6BigIntS0_EvT_S2_RSaIT0_E, .-_ZSt8_DestroyIP6BigIntS0_EvT_S2_RSaIT0_E
	.section	.text._ZNKSt16initializer_listIjE5beginEv,"axG",@progbits,_ZNKSt16initializer_listIjE5beginEv,comdat
	.align 2
	.weak	_ZNKSt16initializer_listIjE5beginEv
	.type	_ZNKSt16initializer_listIjE5beginEv, @function
_ZNKSt16initializer_listIjE5beginEv:
.LFB3754:
	.cfi_startproc
	endbr64
	pushq	%rbp
	.cfi_def_cfa_offset 16
	.cfi_offset 6, -16
	movq	%rsp, %rbp
	.cfi_def_cfa_register 6
	movq	%rdi, -8(%rbp)
	movq	-8(%rbp), %rax
	movq	(%rax), %rax
	popq	%rbp
	.cfi_def_cfa 7, 8
	ret
	.cfi_endproc
.LFE3754:
	.size	_ZNKSt16initializer_listIjE5beginEv, .-_ZNKSt16initializer_listIjE5beginEv
	.section	.text._ZNKSt16initializer_listIjE3endEv,"axG",@progbits,_ZNKSt16initializer_listIjE3endEv,comdat
	.align 2
	.weak	_ZNKSt16initializer_listIjE3endEv
	.type	_ZNKSt16initializer_listIjE3endEv, @function
_ZNKSt16initializer_listIjE3endEv:
.LFB3755:
	.cfi_startproc
	endbr64
	pushq	%rbp
	.cfi_def_cfa_offset 16
	.cfi_offset 6, -16
	movq	%rsp, %rbp
	.cfi_def_cfa_register 6
	pushq	%rbx
	subq	$24, %rsp
	.cfi_offset 3, -24
	movq	%rdi, -24(%rbp)
	movq	-24(%rbp), %rax
	movq	%rax, %rdi
	call	_ZNKSt16initializer_listIjE5beginEv
	movq	%rax, %rbx
	movq	-24(%rbp), %rax
	movq	%rax, %rdi
	call	_ZNKSt16initializer_listIjE4sizeEv
	salq	$2, %rax
	addq	%rbx, %rax
	addq	$24, %rsp
	popq	%rbx
	popq	%rbp
	.cfi_def_cfa 7, 8
	ret
	.cfi_endproc
.LFE3755:
	.size	_ZNKSt16initializer_listIjE3endEv, .-_ZNKSt16initializer_listIjE3endEv
	.section	.text._ZNSt6vectorIjSaIjEE13_M_assign_auxIPKjEEvT_S5_St20forward_iterator_tag,"axG",@progbits,_ZNSt6vectorIjSaIjEE13_M_assign_auxIPKjEEvT_S5_St20forward_iterator_tag,comdat
	.align 2
	.weak	_ZNSt6vectorIjSaIjEE13_M_assign_auxIPKjEEvT_S5_St20forward_iterator_tag
	.type	_ZNSt6vectorIjSaIjEE13_M_assign_auxIPKjEEvT_S5_St20forward_iterator_tag, @function
_ZNSt6vectorIjSaIjEE13_M_assign_auxIPKjEEvT_S5_St20forward_iterator_tag:
.LFB3756:
	.cfi_startproc
	endbr64
	pushq	%rbp
	.cfi_def_cfa_offset 16
	.cfi_offset 6, -16
	movq	%rsp, %rbp
	.cfi_def_cfa_register 6
	subq	$80, %rsp
	movq	%rdi, -56(%rbp)
	movq	%rsi, -64(%rbp)
	movq	%rdx, -72(%rbp)
	movq	%fs:40, %rax
	movq	%rax, -8(%rbp)
	xorl	%eax, %eax
	movq	-72(%rbp), %rdx
	movq	-64(%rbp), %rax
	movq	%rdx, %rsi
	movq	%rax, %rdi
	call	_ZSt8distanceIPKjENSt15iterator_traitsIT_E15difference_typeES3_S3_
	movq	%rax, -32(%rbp)
	movq	-56(%rbp), %rax
	movq	%rax, %rdi
	call	_ZNKSt6vectorIjSaIjEE8capacityEv
	cmpq	%rax, -32(%rbp)
	seta	%al
	testb	%al, %al
	je	.L146
	movq	-56(%rbp), %rax
	movq	%rax, %rdi
	call	_ZNSt12_Vector_baseIjSaIjEE19_M_get_Tp_allocatorEv
	movq	%rax, %rdx
	movq	-32(%rbp), %rax
	movq	%rdx, %rsi
	movq	%rax, %rdi
	call	_ZNSt6vectorIjSaIjEE17_S_check_init_lenEmRKS0_
	movq	-72(%rbp), %rcx
	movq	-64(%rbp), %rdx
	movq	-32(%rbp), %rsi
	movq	-56(%rbp), %rax
	movq	%rax, %rdi
	call	_ZNSt6vectorIjSaIjEE20_M_allocate_and_copyIPKjEEPjmT_S6_
	movq	%rax, -16(%rbp)
	movq	-56(%rbp), %rax
	movq	%rax, %rdi
	call	_ZNSt12_Vector_baseIjSaIjEE19_M_get_Tp_allocatorEv
	movq	%rax, %rdx
	movq	-56(%rbp), %rax
	movq	8(%rax), %rcx
	movq	-56(%rbp), %rax
	movq	(%rax), %rax
	movq	%rcx, %rsi
	movq	%rax, %rdi
	call	_ZSt8_DestroyIPjjEvT_S1_RSaIT0_E
	movq	-56(%rbp), %rax
	movq	-56(%rbp), %rdx
	movq	16(%rdx), %rcx
	movq	-56(%rbp), %rdx
	movq	(%rdx), %rdx
	subq	%rdx, %rcx
	movq	%rcx, %rdx
	sarq	$2, %rdx
	movq	%rdx, %rsi
	movq	-56(%rbp), %rdx
	movq	(%rdx), %rcx
	movq	%rsi, %rdx
	movq	%rcx, %rsi
	movq	%rax, %rdi
	call	_ZNSt12_Vector_baseIjSaIjEE13_M_deallocateEPjm
	movq	-56(%rbp), %rax
	movq	-16(%rbp), %rdx
	movq	%rdx, (%rax)
	movq	-56(%rbp), %rax
	movq	(%rax), %rax
	movq	-32(%rbp), %rdx
	salq	$2, %rdx
	addq	%rax, %rdx
	movq	-56(%rbp), %rax
	movq	%rdx, 8(%rax)
	movq	-56(%rbp), %rax
	movq	8(%rax), %rdx
	movq	-56(%rbp), %rax
	movq	%rdx, 16(%rax)
	jmp	.L150
.L146:
	movq	-56(%rbp), %rax
	movq	%rax, %rdi
	call	_ZNKSt6vectorIjSaIjEE4sizeEv
	cmpq	%rax, -32(%rbp)
	setbe	%al
	testb	%al, %al
	je	.L148
	movq	-56(%rbp), %rax
	movq	(%rax), %rdx
	movq	-72(%rbp), %rcx
	movq	-64(%rbp), %rax
	movq	%rcx, %rsi
	movq	%rax, %rdi
	call	_ZSt4copyIPKjPjET0_T_S4_S3_
	movq	%rax, %rdx
	movq	-56(%rbp), %rax
	movq	%rdx, %rsi
	movq	%rax, %rdi
	call	_ZNSt6vectorIjSaIjEE15_M_erase_at_endEPj
	jmp	.L150
.L148:
	movq	-64(%rbp), %rax
	movq	%rax, -40(%rbp)
	movq	-56(%rbp), %rax
	movq	%rax, %rdi
	call	_ZNKSt6vectorIjSaIjEE4sizeEv
	movq	%rax, %rdx
	leaq	-40(%rbp), %rax
	movq	%rdx, %rsi
	movq	%rax, %rdi
	call	_ZSt7advanceIPKjmEvRT_T0_
	movq	-56(%rbp), %rax
	movq	(%rax), %rdx
	movq	-40(%rbp), %rcx
	movq	-64(%rbp), %rax
	movq	%rcx, %rsi
	movq	%rax, %rdi
	call	_ZSt4copyIPKjPjET0_T_S4_S3_
	movq	-56(%rbp), %rax
	movq	%rax, %rdi
	call	_ZNKSt6vectorIjSaIjEE4sizeEv
	movq	-32(%rbp), %rdx
	subq	%rax, %rdx
	movq	%rdx, %rax
	movq	%rax, -24(%rbp)
	movq	-56(%rbp), %rax
	movq	%rax, %rdi
	call	_ZNSt12_Vector_baseIjSaIjEE19_M_get_Tp_allocatorEv
	movq	%rax, %rcx
	movq	-56(%rbp), %rax
	movq	8(%rax), %rdx
	movq	-40(%rbp), %rax
	movq	-72(%rbp), %rsi
	movq	%rax, %rdi
	call	_ZSt22__uninitialized_copy_aIPKjPjjET0_T_S4_S3_RSaIT1_E
	movq	-56(%rbp), %rdx
	movq	%rax, 8(%rdx)
.L150:
	nop
	movq	-8(%rbp), %rax
	xorq	%fs:40, %rax
	je	.L149
	call	__stack_chk_fail@PLT
.L149:
	leave
	.cfi_def_cfa 7, 8
	ret
	.cfi_endproc
.LFE3756:
	.size	_ZNSt6vectorIjSaIjEE13_M_assign_auxIPKjEEvT_S5_St20forward_iterator_tag, .-_ZNSt6vectorIjSaIjEE13_M_assign_auxIPKjEEvT_S5_St20forward_iterator_tag
	.section	.text._ZN9__gnu_cxx17__normal_iteratorIPjSt6vectorIjSaIjEEEC2ERKS1_,"axG",@progbits,_ZN9__gnu_cxx17__normal_iteratorIPjSt6vectorIjSaIjEEEC5ERKS1_,comdat
	.align 2
	.weak	_ZN9__gnu_cxx17__normal_iteratorIPjSt6vectorIjSaIjEEEC2ERKS1_
	.type	_ZN9__gnu_cxx17__normal_iteratorIPjSt6vectorIjSaIjEEEC2ERKS1_, @function
_ZN9__gnu_cxx17__normal_iteratorIPjSt6vectorIjSaIjEEEC2ERKS1_:
.LFB3758:
	.cfi_startproc
	endbr64
	pushq	%rbp
	.cfi_def_cfa_offset 16
	.cfi_offset 6, -16
	movq	%rsp, %rbp
	.cfi_def_cfa_register 6
	movq	%rdi, -8(%rbp)
	movq	%rsi, -16(%rbp)
	movq	-16(%rbp), %rax
	movq	(%rax), %rdx
	movq	-8(%rbp), %rax
	movq	%rdx, (%rax)
	nop
	popq	%rbp
	.cfi_def_cfa 7, 8
	ret
	.cfi_endproc
.LFE3758:
	.size	_ZN9__gnu_cxx17__normal_iteratorIPjSt6vectorIjSaIjEEEC2ERKS1_, .-_ZN9__gnu_cxx17__normal_iteratorIPjSt6vectorIjSaIjEEEC2ERKS1_
	.weak	_ZN9__gnu_cxx17__normal_iteratorIPjSt6vectorIjSaIjEEEC1ERKS1_
	.set	_ZN9__gnu_cxx17__normal_iteratorIPjSt6vectorIjSaIjEEEC1ERKS1_,_ZN9__gnu_cxx17__normal_iteratorIPjSt6vectorIjSaIjEEEC2ERKS1_
	.section	.text._ZNK9__gnu_cxx17__normal_iteratorIPjSt6vectorIjSaIjEEE4baseEv,"axG",@progbits,_ZNK9__gnu_cxx17__normal_iteratorIPjSt6vectorIjSaIjEEE4baseEv,comdat
	.align 2
	.weak	_ZNK9__gnu_cxx17__normal_iteratorIPjSt6vectorIjSaIjEEE4baseEv
	.type	_ZNK9__gnu_cxx17__normal_iteratorIPjSt6vectorIjSaIjEEE4baseEv, @function
_ZNK9__gnu_cxx17__normal_iteratorIPjSt6vectorIjSaIjEEE4baseEv:
.LFB3760:
	.cfi_startproc
	endbr64
	pushq	%rbp
	.cfi_def_cfa_offset 16
	.cfi_offset 6, -16
	movq	%rsp, %rbp
	.cfi_def_cfa_register 6
	movq	%rdi, -8(%rbp)
	movq	-8(%rbp), %rax
	popq	%rbp
	.cfi_def_cfa 7, 8
	ret
	.cfi_endproc
.LFE3760:
	.size	_ZNK9__gnu_cxx17__normal_iteratorIPjSt6vectorIjSaIjEEE4baseEv, .-_ZNK9__gnu_cxx17__normal_iteratorIPjSt6vectorIjSaIjEEE4baseEv
	.section	.text._ZNKSt6vectorIjSaIjEE6cbeginEv,"axG",@progbits,_ZNKSt6vectorIjSaIjEE6cbeginEv,comdat
	.align 2
	.weak	_ZNKSt6vectorIjSaIjEE6cbeginEv
	.type	_ZNKSt6vectorIjSaIjEE6cbeginEv, @function
_ZNKSt6vectorIjSaIjEE6cbeginEv:
.LFB3761:
	.cfi_startproc
	endbr64
	pushq	%rbp
	.cfi_def_cfa_offset 16
	.cfi_offset 6, -16
	movq	%rsp, %rbp
	.cfi_def_cfa_register 6
	subq	$48, %rsp
	movq	%rdi, -40(%rbp)
	movq	%fs:40, %rax
	movq	%rax, -8(%rbp)
	xorl	%eax, %eax
	movq	-40(%rbp), %rax
	movq	(%rax), %rax
	movq	%rax, -24(%rbp)
	leaq	-24(%rbp), %rdx
	leaq	-16(%rbp), %rax
	movq	%rdx, %rsi
	movq	%rax, %rdi
	call	_ZN9__gnu_cxx17__normal_iteratorIPKjSt6vectorIjSaIjEEEC1ERKS2_
	movq	-16(%rbp), %rax
	movq	-8(%rbp), %rcx
	xorq	%fs:40, %rcx
	je	.L156
	call	__stack_chk_fail@PLT
.L156:
	leave
	.cfi_def_cfa 7, 8
	ret
	.cfi_endproc
.LFE3761:
	.size	_ZNKSt6vectorIjSaIjEE6cbeginEv, .-_ZNKSt6vectorIjSaIjEE6cbeginEv
	.section	.text._ZN9__gnu_cxxmiIPKjSt6vectorIjSaIjEEEENS_17__normal_iteratorIT_T0_E15difference_typeERKS9_SC_,"axG",@progbits,_ZN9__gnu_cxxmiIPKjSt6vectorIjSaIjEEEENS_17__normal_iteratorIT_T0_E15difference_typeERKS9_SC_,comdat
	.weak	_ZN9__gnu_cxxmiIPKjSt6vectorIjSaIjEEEENS_17__normal_iteratorIT_T0_E15difference_typeERKS9_SC_
	.type	_ZN9__gnu_cxxmiIPKjSt6vectorIjSaIjEEEENS_17__normal_iteratorIT_T0_E15difference_typeERKS9_SC_, @function
_ZN9__gnu_cxxmiIPKjSt6vectorIjSaIjEEEENS_17__normal_iteratorIT_T0_E15difference_typeERKS9_SC_:
.LFB3762:
	.cfi_startproc
	endbr64
	pushq	%rbp
	.cfi_def_cfa_offset 16
	.cfi_offset 6, -16
	movq	%rsp, %rbp
	.cfi_def_cfa_register 6
	pushq	%rbx
	subq	$24, %rsp
	.cfi_offset 3, -24
	movq	%rdi, -24(%rbp)
	movq	%rsi, -32(%rbp)
	movq	-24(%rbp), %rax
	movq	%rax, %rdi
	call	_ZNK9__gnu_cxx17__normal_iteratorIPKjSt6vectorIjSaIjEEE4baseEv
	movq	(%rax), %rbx
	movq	-32(%rbp), %rax
	movq	%rax, %rdi
	call	_ZNK9__gnu_cxx17__normal_iteratorIPKjSt6vectorIjSaIjEEE4baseEv
	movq	(%rax), %rax
	subq	%rax, %rbx
	movq	%rbx, %rax
	sarq	$2, %rax
	addq	$24, %rsp
	popq	%rbx
	popq	%rbp
	.cfi_def_cfa 7, 8
	ret
	.cfi_endproc
.LFE3762:
	.size	_ZN9__gnu_cxxmiIPKjSt6vectorIjSaIjEEEENS_17__normal_iteratorIT_T0_E15difference_typeERKS9_SC_, .-_ZN9__gnu_cxxmiIPKjSt6vectorIjSaIjEEEENS_17__normal_iteratorIT_T0_E15difference_typeERKS9_SC_
	.section	.rodata
.LC2:
	.string	"vector::_M_fill_insert"
	.section	.text._ZNSt6vectorIjSaIjEE14_M_fill_insertEN9__gnu_cxx17__normal_iteratorIPjS1_EEmRKj,"axG",@progbits,_ZNSt6vectorIjSaIjEE14_M_fill_insertEN9__gnu_cxx17__normal_iteratorIPjS1_EEmRKj,comdat
	.align 2
	.weak	_ZNSt6vectorIjSaIjEE14_M_fill_insertEN9__gnu_cxx17__normal_iteratorIPjS1_EEmRKj
	.type	_ZNSt6vectorIjSaIjEE14_M_fill_insertEN9__gnu_cxx17__normal_iteratorIPjS1_EEmRKj, @function
_ZNSt6vectorIjSaIjEE14_M_fill_insertEN9__gnu_cxx17__normal_iteratorIPjS1_EEmRKj:
.LFB3763:
	.cfi_startproc
	.cfi_personality 0x9b,DW.ref.__gxx_personality_v0
	.cfi_lsda 0x1b,.LLSDA3763
	endbr64
	pushq	%rbp
	.cfi_def_cfa_offset 16
	.cfi_offset 6, -16
	movq	%rsp, %rbp
	.cfi_def_cfa_register 6
	pushq	%r12
	pushq	%rbx
	addq	$-128, %rsp
	.cfi_offset 12, -24
	.cfi_offset 3, -32
	movq	%rdi, -120(%rbp)
	movq	%rsi, -128(%rbp)
	movq	%rdx, -136(%rbp)
	movq	%rcx, -144(%rbp)
	movq	%fs:40, %rax
	movq	%rax, -24(%rbp)
	xorl	%eax, %eax
	cmpq	$0, -136(%rbp)
	je	.L173
	movq	-120(%rbp), %rax
	movq	16(%rax), %rdx
	movq	-120(%rbp), %rax
	movq	8(%rax), %rax
	subq	%rax, %rdx
	movq	%rdx, %rax
	sarq	$2, %rax
	cmpq	%rax, -136(%rbp)
	ja	.L161
	movq	-144(%rbp), %rdx
	movq	-120(%rbp), %rcx
	leaq	-48(%rbp), %rax
	movq	%rcx, %rsi
	movq	%rax, %rdi
.LEHB12:
	call	_ZNSt6vectorIjSaIjEE16_Temporary_valueC1IJRKjEEEPS1_DpOT_
.LEHE12:
	leaq	-48(%rbp), %rax
	movq	%rax, %rdi
.LEHB13:
	call	_ZNSt6vectorIjSaIjEE16_Temporary_value6_M_valEv
	movq	%rax, -72(%rbp)
	movq	-120(%rbp), %rax
	movq	%rax, %rdi
	call	_ZNSt6vectorIjSaIjEE3endEv
	movq	%rax, -112(%rbp)
	leaq	-128(%rbp), %rdx
	leaq	-112(%rbp), %rax
	movq	%rdx, %rsi
	movq	%rax, %rdi
	call	_ZN9__gnu_cxxmiIPjSt6vectorIjSaIjEEEENS_17__normal_iteratorIT_T0_E15difference_typeERKS8_SB_
	movq	%rax, -64(%rbp)
	movq	-120(%rbp), %rax
	movq	8(%rax), %rax
	movq	%rax, -56(%rbp)
	movq	-64(%rbp), %rax
	cmpq	-136(%rbp), %rax
	jbe	.L162
	movq	-120(%rbp), %rax
	movq	%rax, %rdi
	call	_ZNSt12_Vector_baseIjSaIjEE19_M_get_Tp_allocatorEv
	movq	%rax, %rsi
	movq	-120(%rbp), %rax
	movq	8(%rax), %rdx
	movq	-120(%rbp), %rax
	movq	8(%rax), %rax
	movq	-120(%rbp), %rcx
	movq	8(%rcx), %rcx
	movq	-136(%rbp), %rdi
	salq	$2, %rdi
	negq	%rdi
	addq	%rcx, %rdi
	movq	%rsi, %rcx
	movq	%rax, %rsi
	call	_ZSt22__uninitialized_move_aIPjS0_SaIjEET0_T_S3_S2_RT1_
	movq	-120(%rbp), %rax
	movq	8(%rax), %rax
	movq	-136(%rbp), %rdx
	salq	$2, %rdx
	addq	%rax, %rdx
	movq	-120(%rbp), %rax
	movq	%rdx, 8(%rax)
	movq	-136(%rbp), %rax
	salq	$2, %rax
	negq	%rax
	movq	%rax, %rdx
	movq	-56(%rbp), %rax
	leaq	(%rdx,%rax), %rbx
	leaq	-128(%rbp), %rax
	movq	%rax, %rdi
	call	_ZNK9__gnu_cxx17__normal_iteratorIPjSt6vectorIjSaIjEEE4baseEv
	movq	(%rax), %rax
	movq	-56(%rbp), %rdx
	movq	%rbx, %rsi
	movq	%rax, %rdi
	call	_ZSt13move_backwardIPjS0_ET0_T_S2_S1_
	leaq	-128(%rbp), %rax
	movq	%rax, %rdi
	call	_ZNK9__gnu_cxx17__normal_iteratorIPjSt6vectorIjSaIjEEE4baseEv
	movq	(%rax), %rax
	movq	-136(%rbp), %rdx
	salq	$2, %rdx
	leaq	(%rax,%rdx), %rbx
	leaq	-128(%rbp), %rax
	movq	%rax, %rdi
	call	_ZNK9__gnu_cxx17__normal_iteratorIPjSt6vectorIjSaIjEEE4baseEv
	movq	(%rax), %rax
	movq	-72(%rbp), %rdx
	movq	%rbx, %rsi
	movq	%rax, %rdi
	call	_ZSt4fillIPjjEvT_S1_RKT0_
	jmp	.L163
.L162:
	movq	-120(%rbp), %rax
	movq	%rax, %rdi
	call	_ZNSt12_Vector_baseIjSaIjEE19_M_get_Tp_allocatorEv
	movq	%rax, %rcx
	movq	-136(%rbp), %rax
	subq	-64(%rbp), %rax
	movq	%rax, %rsi
	movq	-120(%rbp), %rax
	movq	8(%rax), %rax
	movq	-72(%rbp), %rdx
	movq	%rax, %rdi
	call	_ZSt24__uninitialized_fill_n_aIPjmjjET_S1_T0_RKT1_RSaIT2_E
	movq	-120(%rbp), %rdx
	movq	%rax, 8(%rdx)
	movq	-120(%rbp), %rax
	movq	%rax, %rdi
	call	_ZNSt12_Vector_baseIjSaIjEE19_M_get_Tp_allocatorEv
	movq	%rax, %r12
	movq	-120(%rbp), %rax
	movq	8(%rax), %rbx
	leaq	-128(%rbp), %rax
	movq	%rax, %rdi
	call	_ZNK9__gnu_cxx17__normal_iteratorIPjSt6vectorIjSaIjEEE4baseEv
	movq	(%rax), %rax
	movq	-56(%rbp), %rsi
	movq	%r12, %rcx
	movq	%rbx, %rdx
	movq	%rax, %rdi
	call	_ZSt22__uninitialized_move_aIPjS0_SaIjEET0_T_S3_S2_RT1_
	movq	-120(%rbp), %rax
	movq	8(%rax), %rax
	movq	-64(%rbp), %rdx
	salq	$2, %rdx
	addq	%rax, %rdx
	movq	-120(%rbp), %rax
	movq	%rdx, 8(%rax)
	leaq	-128(%rbp), %rax
	movq	%rax, %rdi
	call	_ZNK9__gnu_cxx17__normal_iteratorIPjSt6vectorIjSaIjEEE4baseEv
	movq	(%rax), %rax
	movq	-72(%rbp), %rdx
	movq	-56(%rbp), %rcx
	movq	%rcx, %rsi
	movq	%rax, %rdi
	call	_ZSt4fillIPjjEvT_S1_RKT0_
.LEHE13:
.L163:
	leaq	-48(%rbp), %rax
	movq	%rax, %rdi
	call	_ZNSt6vectorIjSaIjEE16_Temporary_valueD1Ev
	jmp	.L173
.L161:
	movq	-136(%rbp), %rcx
	movq	-120(%rbp), %rax
	leaq	.LC2(%rip), %rdx
	movq	%rcx, %rsi
	movq	%rax, %rdi
.LEHB14:
	call	_ZNKSt6vectorIjSaIjEE12_M_check_lenEmPKc
	movq	%rax, -96(%rbp)
	movq	-120(%rbp), %rax
	movq	%rax, %rdi
	call	_ZNSt6vectorIjSaIjEE5beginEv
	movq	%rax, -112(%rbp)
	leaq	-112(%rbp), %rdx
	leaq	-128(%rbp), %rax
	movq	%rdx, %rsi
	movq	%rax, %rdi
	call	_ZN9__gnu_cxxmiIPjSt6vectorIjSaIjEEEENS_17__normal_iteratorIT_T0_E15difference_typeERKS8_SB_
	movq	%rax, -88(%rbp)
	movq	-120(%rbp), %rax
	movq	-96(%rbp), %rdx
	movq	%rdx, %rsi
	movq	%rax, %rdi
	call	_ZNSt12_Vector_baseIjSaIjEE11_M_allocateEm
.LEHE14:
	movq	%rax, -80(%rbp)
	movq	-80(%rbp), %rax
	movq	%rax, -104(%rbp)
	movq	-120(%rbp), %rax
	movq	%rax, %rdi
	call	_ZNSt12_Vector_baseIjSaIjEE19_M_get_Tp_allocatorEv
	movq	%rax, %rcx
	movq	-88(%rbp), %rax
	leaq	0(,%rax,4), %rdx
	movq	-80(%rbp), %rax
	leaq	(%rdx,%rax), %rdi
	movq	-144(%rbp), %rdx
	movq	-136(%rbp), %rax
	movq	%rax, %rsi
.LEHB15:
	call	_ZSt24__uninitialized_fill_n_aIPjmjjET_S1_T0_RKT1_RSaIT2_E
	movq	$0, -104(%rbp)
	movq	-120(%rbp), %rax
	movq	%rax, %rdi
	call	_ZNSt12_Vector_baseIjSaIjEE19_M_get_Tp_allocatorEv
	movq	%rax, %rbx
	leaq	-128(%rbp), %rax
	movq	%rax, %rdi
	call	_ZNK9__gnu_cxx17__normal_iteratorIPjSt6vectorIjSaIjEEE4baseEv
	movq	(%rax), %rsi
	movq	-120(%rbp), %rax
	movq	(%rax), %rax
	movq	-80(%rbp), %rdx
	movq	%rbx, %rcx
	movq	%rax, %rdi
	call	_ZSt34__uninitialized_move_if_noexcept_aIPjS0_SaIjEET0_T_S3_S2_RT1_
	movq	%rax, -104(%rbp)
	movq	-136(%rbp), %rax
	salq	$2, %rax
	addq	%rax, -104(%rbp)
	movq	-120(%rbp), %rax
	movq	%rax, %rdi
	call	_ZNSt12_Vector_baseIjSaIjEE19_M_get_Tp_allocatorEv
	movq	%rax, %r12
	movq	-120(%rbp), %rax
	movq	8(%rax), %rbx
	leaq	-128(%rbp), %rax
	movq	%rax, %rdi
	call	_ZNK9__gnu_cxx17__normal_iteratorIPjSt6vectorIjSaIjEEE4baseEv
	movq	(%rax), %rax
	movq	-104(%rbp), %rdx
	movq	%r12, %rcx
	movq	%rbx, %rsi
	movq	%rax, %rdi
	call	_ZSt34__uninitialized_move_if_noexcept_aIPjS0_SaIjEET0_T_S3_S2_RT1_
.LEHE15:
	movq	%rax, -104(%rbp)
	movq	-120(%rbp), %rax
	movq	%rax, %rdi
	call	_ZNSt12_Vector_baseIjSaIjEE19_M_get_Tp_allocatorEv
	movq	%rax, %rdx
	movq	-120(%rbp), %rax
	movq	8(%rax), %rcx
	movq	-120(%rbp), %rax
	movq	(%rax), %rax
	movq	%rcx, %rsi
	movq	%rax, %rdi
.LEHB16:
	call	_ZSt8_DestroyIPjjEvT_S1_RSaIT0_E
	movq	-120(%rbp), %rax
	movq	-120(%rbp), %rdx
	movq	16(%rdx), %rcx
	movq	-120(%rbp), %rdx
	movq	(%rdx), %rdx
	subq	%rdx, %rcx
	movq	%rcx, %rdx
	sarq	$2, %rdx
	movq	%rdx, %rsi
	movq	-120(%rbp), %rdx
	movq	(%rdx), %rcx
	movq	%rsi, %rdx
	movq	%rcx, %rsi
	movq	%rax, %rdi
	call	_ZNSt12_Vector_baseIjSaIjEE13_M_deallocateEPjm
	movq	-120(%rbp), %rax
	movq	-80(%rbp), %rdx
	movq	%rdx, (%rax)
	movq	-120(%rbp), %rax
	movq	-104(%rbp), %rdx
	movq	%rdx, 8(%rax)
	movq	-96(%rbp), %rax
	leaq	0(,%rax,4), %rdx
	movq	-80(%rbp), %rax
	addq	%rax, %rdx
	movq	-120(%rbp), %rax
	movq	%rdx, 16(%rax)
	jmp	.L173
.L170:
	endbr64
	movq	%rax, %rbx
	leaq	-48(%rbp), %rax
	movq	%rax, %rdi
	call	_ZNSt6vectorIjSaIjEE16_Temporary_valueD1Ev
	movq	%rbx, %rax
	movq	%rax, %rdi
	call	_Unwind_Resume@PLT
.LEHE16:
.L171:
	endbr64
	movq	%rax, %rdi
	call	__cxa_begin_catch@PLT
	cmpq	$0, -104(%rbp)
	jne	.L166
	movq	-120(%rbp), %rax
	movq	%rax, %rdi
	call	_ZNSt12_Vector_baseIjSaIjEE19_M_get_Tp_allocatorEv
	movq	%rax, %rdx
	movq	-88(%rbp), %rcx
	movq	-136(%rbp), %rax
	addq	%rcx, %rax
	leaq	0(,%rax,4), %rcx
	movq	-80(%rbp), %rax
	addq	%rax, %rcx
	movq	-88(%rbp), %rax
	leaq	0(,%rax,4), %rsi
	movq	-80(%rbp), %rax
	addq	%rsi, %rax
	movq	%rcx, %rsi
	movq	%rax, %rdi
.LEHB17:
	call	_ZSt8_DestroyIPjjEvT_S1_RSaIT0_E
	jmp	.L167
.L166:
	movq	-120(%rbp), %rax
	movq	%rax, %rdi
	call	_ZNSt12_Vector_baseIjSaIjEE19_M_get_Tp_allocatorEv
	movq	%rax, %rdx
	movq	-104(%rbp), %rcx
	movq	-80(%rbp), %rax
	movq	%rcx, %rsi
	movq	%rax, %rdi
	call	_ZSt8_DestroyIPjjEvT_S1_RSaIT0_E
.L167:
	movq	-120(%rbp), %rax
	movq	-96(%rbp), %rdx
	movq	-80(%rbp), %rcx
	movq	%rcx, %rsi
	movq	%rax, %rdi
	call	_ZNSt12_Vector_baseIjSaIjEE13_M_deallocateEPjm
	call	__cxa_rethrow@PLT
.LEHE17:
.L172:
	endbr64
	movq	%rax, %rbx
	call	__cxa_end_catch@PLT
	movq	%rbx, %rax
	movq	%rax, %rdi
.LEHB18:
	call	_Unwind_Resume@PLT
.LEHE18:
.L173:
	nop
	movq	-24(%rbp), %rax
	xorq	%fs:40, %rax
	je	.L169
	call	__stack_chk_fail@PLT
.L169:
	subq	$-128, %rsp
	popq	%rbx
	popq	%r12
	popq	%rbp
	.cfi_def_cfa 7, 8
	ret
	.cfi_endproc
.LFE3763:
	.section	.gcc_except_table
	.align 4
.LLSDA3763:
	.byte	0xff
	.byte	0x9b
	.uleb128 .LLSDATT3763-.LLSDATTD3763
.LLSDATTD3763:
	.byte	0x1
	.uleb128 .LLSDACSE3763-.LLSDACSB3763
.LLSDACSB3763:
	.uleb128 .LEHB12-.LFB3763
	.uleb128 .LEHE12-.LEHB12
	.uleb128 0
	.uleb128 0
	.uleb128 .LEHB13-.LFB3763
	.uleb128 .LEHE13-.LEHB13
	.uleb128 .L170-.LFB3763
	.uleb128 0
	.uleb128 .LEHB14-.LFB3763
	.uleb128 .LEHE14-.LEHB14
	.uleb128 0
	.uleb128 0
	.uleb128 .LEHB15-.LFB3763
	.uleb128 .LEHE15-.LEHB15
	.uleb128 .L171-.LFB3763
	.uleb128 0x1
	.uleb128 .LEHB16-.LFB3763
	.uleb128 .LEHE16-.LEHB16
	.uleb128 0
	.uleb128 0
	.uleb128 .LEHB17-.LFB3763
	.uleb128 .LEHE17-.LEHB17
	.uleb128 .L172-.LFB3763
	.uleb128 0
	.uleb128 .LEHB18-.LFB3763
	.uleb128 .LEHE18-.LEHB18
	.uleb128 0
	.uleb128 0
.LLSDACSE3763:
	.byte	0x1
	.byte	0
	.align 4
	.long	0

.LLSDATT3763:
	.section	.text._ZNSt6vectorIjSaIjEE14_M_fill_insertEN9__gnu_cxx17__normal_iteratorIPjS1_EEmRKj,"axG",@progbits,_ZNSt6vectorIjSaIjEE14_M_fill_insertEN9__gnu_cxx17__normal_iteratorIPjS1_EEmRKj,comdat
	.size	_ZNSt6vectorIjSaIjEE14_M_fill_insertEN9__gnu_cxx17__normal_iteratorIPjS1_EEmRKj, .-_ZNSt6vectorIjSaIjEE14_M_fill_insertEN9__gnu_cxx17__normal_iteratorIPjS1_EEmRKj
	.section	.text._ZNSt6vectorIjSaIjEE5beginEv,"axG",@progbits,_ZNSt6vectorIjSaIjEE5beginEv,comdat
	.align 2
	.weak	_ZNSt6vectorIjSaIjEE5beginEv
	.type	_ZNSt6vectorIjSaIjEE5beginEv, @function
_ZNSt6vectorIjSaIjEE5beginEv:
.LFB3764:
	.cfi_startproc
	endbr64
	pushq	%rbp
	.cfi_def_cfa_offset 16
	.cfi_offset 6, -16
	movq	%rsp, %rbp
	.cfi_def_cfa_register 6
	subq	$32, %rsp
	movq	%rdi, -24(%rbp)
	movq	%fs:40, %rax
	movq	%rax, -8(%rbp)
	xorl	%eax, %eax
	movq	-24(%rbp), %rdx
	leaq	-16(%rbp), %rax
	movq	%rdx, %rsi
	movq	%rax, %rdi
	call	_ZN9__gnu_cxx17__normal_iteratorIPjSt6vectorIjSaIjEEEC1ERKS1_
	movq	-16(%rbp), %rax
	movq	-8(%rbp), %rcx
	xorq	%fs:40, %rcx
	je	.L176
	call	__stack_chk_fail@PLT
.L176:
	leave
	.cfi_def_cfa 7, 8
	ret
	.cfi_endproc
.LFE3764:
	.size	_ZNSt6vectorIjSaIjEE5beginEv, .-_ZNSt6vectorIjSaIjEE5beginEv
	.section	.text._ZNK9__gnu_cxx17__normal_iteratorIPjSt6vectorIjSaIjEEEplEl,"axG",@progbits,_ZNK9__gnu_cxx17__normal_iteratorIPjSt6vectorIjSaIjEEEplEl,comdat
	.align 2
	.weak	_ZNK9__gnu_cxx17__normal_iteratorIPjSt6vectorIjSaIjEEEplEl
	.type	_ZNK9__gnu_cxx17__normal_iteratorIPjSt6vectorIjSaIjEEEplEl, @function
_ZNK9__gnu_cxx17__normal_iteratorIPjSt6vectorIjSaIjEEEplEl:
.LFB3765:
	.cfi_startproc
	endbr64
	pushq	%rbp
	.cfi_def_cfa_offset 16
	.cfi_offset 6, -16
	movq	%rsp, %rbp
	.cfi_def_cfa_register 6
	subq	$48, %rsp
	movq	%rdi, -40(%rbp)
	movq	%rsi, -48(%rbp)
	movq	%fs:40, %rax
	movq	%rax, -8(%rbp)
	xorl	%eax, %eax
	movq	-40(%rbp), %rax
	movq	(%rax), %rax
	movq	-48(%rbp), %rdx
	salq	$2, %rdx
	addq	%rdx, %rax
	movq	%rax, -24(%rbp)
	leaq	-24(%rbp), %rdx
	leaq	-16(%rbp), %rax
	movq	%rdx, %rsi
	movq	%rax, %rdi
	call	_ZN9__gnu_cxx17__normal_iteratorIPjSt6vectorIjSaIjEEEC1ERKS1_
	movq	-16(%rbp), %rax
	movq	-8(%rbp), %rcx
	xorq	%fs:40, %rcx
	je	.L179
	call	__stack_chk_fail@PLT
.L179:
	leave
	.cfi_def_cfa 7, 8
	ret
	.cfi_endproc
.LFE3765:
	.size	_ZNK9__gnu_cxx17__normal_iteratorIPjSt6vectorIjSaIjEEEplEl, .-_ZNK9__gnu_cxx17__normal_iteratorIPjSt6vectorIjSaIjEEEplEl
	.section	.text._ZNSaIjEC2ERKS_,"axG",@progbits,_ZNSaIjEC5ERKS_,comdat
	.align 2
	.weak	_ZNSaIjEC2ERKS_
	.type	_ZNSaIjEC2ERKS_, @function
_ZNSaIjEC2ERKS_:
.LFB3768:
	.cfi_startproc
	endbr64
	pushq	%rbp
	.cfi_def_cfa_offset 16
	.cfi_offset 6, -16
	movq	%rsp, %rbp
	.cfi_def_cfa_register 6
	subq	$16, %rsp
	movq	%rdi, -8(%rbp)
	movq	%rsi, -16(%rbp)
	movq	-16(%rbp), %rdx
	movq	-8(%rbp), %rax
	movq	%rdx, %rsi
	movq	%rax, %rdi
	call	_ZN9__gnu_cxx13new_allocatorIjEC2ERKS1_
	nop
	leave
	.cfi_def_cfa 7, 8
	ret
	.cfi_endproc
.LFE3768:
	.size	_ZNSaIjEC2ERKS_, .-_ZNSaIjEC2ERKS_
	.weak	_ZNSaIjEC1ERKS_
	.set	_ZNSaIjEC1ERKS_,_ZNSaIjEC2ERKS_
	.section	.text._ZNKSt12_Vector_baseIjSaIjEE19_M_get_Tp_allocatorEv,"axG",@progbits,_ZNKSt12_Vector_baseIjSaIjEE19_M_get_Tp_allocatorEv,comdat
	.align 2
	.weak	_ZNKSt12_Vector_baseIjSaIjEE19_M_get_Tp_allocatorEv
	.type	_ZNKSt12_Vector_baseIjSaIjEE19_M_get_Tp_allocatorEv, @function
_ZNKSt12_Vector_baseIjSaIjEE19_M_get_Tp_allocatorEv:
.LFB3773:
	.cfi_startproc
	endbr64
	pushq	%rbp
	.cfi_def_cfa_offset 16
	.cfi_offset 6, -16
	movq	%rsp, %rbp
	.cfi_def_cfa_register 6
	movq	%rdi, -8(%rbp)
	movq	-8(%rbp), %rax
	popq	%rbp
	.cfi_def_cfa 7, 8
	ret
	.cfi_endproc
.LFE3773:
	.size	_ZNKSt12_Vector_baseIjSaIjEE19_M_get_Tp_allocatorEv, .-_ZNKSt12_Vector_baseIjSaIjEE19_M_get_Tp_allocatorEv
	.section	.text._ZStneRKSaIjES1_,"axG",@progbits,_ZStneRKSaIjES1_,comdat
	.weak	_ZStneRKSaIjES1_
	.type	_ZStneRKSaIjES1_, @function
_ZStneRKSaIjES1_:
.LFB3774:
	.cfi_startproc
	endbr64
	pushq	%rbp
	.cfi_def_cfa_offset 16
	.cfi_offset 6, -16
	movq	%rsp, %rbp
	.cfi_def_cfa_register 6
	movq	%rdi, -8(%rbp)
	movq	%rsi, -16(%rbp)
	movl	$0, %eax
	popq	%rbp
	.cfi_def_cfa 7, 8
	ret
	.cfi_endproc
.LFE3774:
	.size	_ZStneRKSaIjES1_, .-_ZStneRKSaIjES1_
	.section	.text._ZNSt6vectorIjSaIjEE5clearEv,"axG",@progbits,_ZNSt6vectorIjSaIjEE5clearEv,comdat
	.align 2
	.weak	_ZNSt6vectorIjSaIjEE5clearEv
	.type	_ZNSt6vectorIjSaIjEE5clearEv, @function
_ZNSt6vectorIjSaIjEE5clearEv:
.LFB3775:
	.cfi_startproc
	endbr64
	pushq	%rbp
	.cfi_def_cfa_offset 16
	.cfi_offset 6, -16
	movq	%rsp, %rbp
	.cfi_def_cfa_register 6
	subq	$16, %rsp
	movq	%rdi, -8(%rbp)
	movq	-8(%rbp), %rax
	movq	(%rax), %rdx
	movq	-8(%rbp), %rax
	movq	%rdx, %rsi
	movq	%rax, %rdi
	call	_ZNSt6vectorIjSaIjEE15_M_erase_at_endEPj
	nop
	leave
	.cfi_def_cfa 7, 8
	ret
	.cfi_endproc
.LFE3775:
	.size	_ZNSt6vectorIjSaIjEE5clearEv, .-_ZNSt6vectorIjSaIjEE5clearEv
	.section	.text._ZSt15__alloc_on_copyISaIjEEvRT_RKS1_,"axG",@progbits,_ZSt15__alloc_on_copyISaIjEEvRT_RKS1_,comdat
	.weak	_ZSt15__alloc_on_copyISaIjEEvRT_RKS1_
	.type	_ZSt15__alloc_on_copyISaIjEEvRT_RKS1_, @function
_ZSt15__alloc_on_copyISaIjEEvRT_RKS1_:
.LFB3776:
	.cfi_startproc
	endbr64
	pushq	%rbp
	.cfi_def_cfa_offset 16
	.cfi_offset 6, -16
	movq	%rsp, %rbp
	.cfi_def_cfa_register 6
	subq	$32, %rsp
	movq	%rdi, -24(%rbp)
	movq	%rsi, -32(%rbp)
	movq	%fs:40, %rax
	movq	%rax, -8(%rbp)
	xorl	%eax, %eax
	movq	-32(%rbp), %rdx
	movq	-24(%rbp), %rax
	movq	%rdx, %rsi
	movq	%rax, %rdi
	call	_ZSt18__do_alloc_on_copyISaIjEEvRT_RKS1_St17integral_constantIbLb0EE
	nop
	movq	-8(%rbp), %rax
	xorq	%fs:40, %rax
	je	.L187
	call	__stack_chk_fail@PLT
.L187:
	leave
	.cfi_def_cfa 7, 8
	ret
	.cfi_endproc
.LFE3776:
	.size	_ZSt15__alloc_on_copyISaIjEEvRT_RKS1_, .-_ZSt15__alloc_on_copyISaIjEEvRT_RKS1_
	.section	.text._ZNKSt6vectorIjSaIjEE8capacityEv,"axG",@progbits,_ZNKSt6vectorIjSaIjEE8capacityEv,comdat
	.align 2
	.weak	_ZNKSt6vectorIjSaIjEE8capacityEv
	.type	_ZNKSt6vectorIjSaIjEE8capacityEv, @function
_ZNKSt6vectorIjSaIjEE8capacityEv:
.LFB3777:
	.cfi_startproc
	endbr64
	pushq	%rbp
	.cfi_def_cfa_offset 16
	.cfi_offset 6, -16
	movq	%rsp, %rbp
	.cfi_def_cfa_register 6
	movq	%rdi, -8(%rbp)
	movq	-8(%rbp), %rax
	movq	16(%rax), %rdx
	movq	-8(%rbp), %rax
	movq	(%rax), %rax
	subq	%rax, %rdx
	movq	%rdx, %rax
	sarq	$2, %rax
	popq	%rbp
	.cfi_def_cfa 7, 8
	ret
	.cfi_endproc
.LFE3777:
	.size	_ZNKSt6vectorIjSaIjEE8capacityEv, .-_ZNKSt6vectorIjSaIjEE8capacityEv
	.section	.text._ZNKSt6vectorIjSaIjEE5beginEv,"axG",@progbits,_ZNKSt6vectorIjSaIjEE5beginEv,comdat
	.align 2
	.weak	_ZNKSt6vectorIjSaIjEE5beginEv
	.type	_ZNKSt6vectorIjSaIjEE5beginEv, @function
_ZNKSt6vectorIjSaIjEE5beginEv:
.LFB3778:
	.cfi_startproc
	endbr64
	pushq	%rbp
	.cfi_def_cfa_offset 16
	.cfi_offset 6, -16
	movq	%rsp, %rbp
	.cfi_def_cfa_register 6
	subq	$48, %rsp
	movq	%rdi, -40(%rbp)
	movq	%fs:40, %rax
	movq	%rax, -8(%rbp)
	xorl	%eax, %eax
	movq	-40(%rbp), %rax
	movq	(%rax), %rax
	movq	%rax, -24(%rbp)
	leaq	-24(%rbp), %rdx
	leaq	-16(%rbp), %rax
	movq	%rdx, %rsi
	movq	%rax, %rdi
	call	_ZN9__gnu_cxx17__normal_iteratorIPKjSt6vectorIjSaIjEEEC1ERKS2_
	movq	-16(%rbp), %rax
	movq	-8(%rbp), %rcx
	xorq	%fs:40, %rcx
	je	.L192
	call	__stack_chk_fail@PLT
.L192:
	leave
	.cfi_def_cfa 7, 8
	ret
	.cfi_endproc
.LFE3778:
	.size	_ZNKSt6vectorIjSaIjEE5beginEv, .-_ZNKSt6vectorIjSaIjEE5beginEv
	.section	.text._ZNKSt6vectorIjSaIjEE3endEv,"axG",@progbits,_ZNKSt6vectorIjSaIjEE3endEv,comdat
	.align 2
	.weak	_ZNKSt6vectorIjSaIjEE3endEv
	.type	_ZNKSt6vectorIjSaIjEE3endEv, @function
_ZNKSt6vectorIjSaIjEE3endEv:
.LFB3779:
	.cfi_startproc
	endbr64
	pushq	%rbp
	.cfi_def_cfa_offset 16
	.cfi_offset 6, -16
	movq	%rsp, %rbp
	.cfi_def_cfa_register 6
	subq	$48, %rsp
	movq	%rdi, -40(%rbp)
	movq	%fs:40, %rax
	movq	%rax, -8(%rbp)
	xorl	%eax, %eax
	movq	-40(%rbp), %rax
	movq	8(%rax), %rax
	movq	%rax, -24(%rbp)
	leaq	-24(%rbp), %rdx
	leaq	-16(%rbp), %rax
	movq	%rdx, %rsi
	movq	%rax, %rdi
	call	_ZN9__gnu_cxx17__normal_iteratorIPKjSt6vectorIjSaIjEEEC1ERKS2_
	movq	-16(%rbp), %rax
	movq	-8(%rbp), %rcx
	xorq	%fs:40, %rcx
	je	.L195
	call	__stack_chk_fail@PLT
.L195:
	leave
	.cfi_def_cfa 7, 8
	ret
	.cfi_endproc
.LFE3779:
	.size	_ZNKSt6vectorIjSaIjEE3endEv, .-_ZNKSt6vectorIjSaIjEE3endEv
	.section	.text._ZNSt6vectorIjSaIjEE20_M_allocate_and_copyIN9__gnu_cxx17__normal_iteratorIPKjS1_EEEEPjmT_S9_,"axG",@progbits,_ZNSt6vectorIjSaIjEE20_M_allocate_and_copyIN9__gnu_cxx17__normal_iteratorIPKjS1_EEEEPjmT_S9_,comdat
	.align 2
	.weak	_ZNSt6vectorIjSaIjEE20_M_allocate_and_copyIN9__gnu_cxx17__normal_iteratorIPKjS1_EEEEPjmT_S9_
	.type	_ZNSt6vectorIjSaIjEE20_M_allocate_and_copyIN9__gnu_cxx17__normal_iteratorIPKjS1_EEEEPjmT_S9_, @function
_ZNSt6vectorIjSaIjEE20_M_allocate_and_copyIN9__gnu_cxx17__normal_iteratorIPKjS1_EEEEPjmT_S9_:
.LFB3780:
	.cfi_startproc
	.cfi_personality 0x9b,DW.ref.__gxx_personality_v0
	.cfi_lsda 0x1b,.LLSDA3780
	endbr64
	pushq	%rbp
	.cfi_def_cfa_offset 16
	.cfi_offset 6, -16
	movq	%rsp, %rbp
	.cfi_def_cfa_register 6
	pushq	%rbx
	subq	$56, %rsp
	.cfi_offset 3, -24
	movq	%rdi, -40(%rbp)
	movq	%rsi, -48(%rbp)
	movq	%rdx, -56(%rbp)
	movq	%rcx, -64(%rbp)
	movq	-40(%rbp), %rax
	movq	-48(%rbp), %rdx
	movq	%rdx, %rsi
	movq	%rax, %rdi
.LEHB19:
	call	_ZNSt12_Vector_baseIjSaIjEE11_M_allocateEm
.LEHE19:
	movq	%rax, -24(%rbp)
	movq	-40(%rbp), %rax
	movq	%rax, %rdi
	call	_ZNSt12_Vector_baseIjSaIjEE19_M_get_Tp_allocatorEv
	movq	%rax, %rcx
	movq	-24(%rbp), %rdx
	movq	-64(%rbp), %rsi
	movq	-56(%rbp), %rax
	movq	%rax, %rdi
.LEHB20:
	call	_ZSt22__uninitialized_copy_aIN9__gnu_cxx17__normal_iteratorIPKjSt6vectorIjSaIjEEEEPjjET0_T_SA_S9_RSaIT1_E
.LEHE20:
	movq	-24(%rbp), %rax
	jmp	.L202
.L200:
	endbr64
	movq	%rax, %rdi
	call	__cxa_begin_catch@PLT
	movq	-40(%rbp), %rax
	movq	-48(%rbp), %rdx
	movq	-24(%rbp), %rcx
	movq	%rcx, %rsi
	movq	%rax, %rdi
.LEHB21:
	call	_ZNSt12_Vector_baseIjSaIjEE13_M_deallocateEPjm
	call	__cxa_rethrow@PLT
.LEHE21:
.L201:
	endbr64
	movq	%rax, %rbx
	call	__cxa_end_catch@PLT
	movq	%rbx, %rax
	movq	%rax, %rdi
.LEHB22:
	call	_Unwind_Resume@PLT
.LEHE22:
.L202:
	addq	$56, %rsp
	popq	%rbx
	popq	%rbp
	.cfi_def_cfa 7, 8
	ret
	.cfi_endproc
.LFE3780:
	.section	.gcc_except_table
	.align 4
.LLSDA3780:
	.byte	0xff
	.byte	0x9b
	.uleb128 .LLSDATT3780-.LLSDATTD3780
.LLSDATTD3780:
	.byte	0x1
	.uleb128 .LLSDACSE3780-.LLSDACSB3780
.LLSDACSB3780:
	.uleb128 .LEHB19-.LFB3780
	.uleb128 .LEHE19-.LEHB19
	.uleb128 0
	.uleb128 0
	.uleb128 .LEHB20-.LFB3780
	.uleb128 .LEHE20-.LEHB20
	.uleb128 .L200-.LFB3780
	.uleb128 0x1
	.uleb128 .LEHB21-.LFB3780
	.uleb128 .LEHE21-.LEHB21
	.uleb128 .L201-.LFB3780
	.uleb128 0
	.uleb128 .LEHB22-.LFB3780
	.uleb128 .LEHE22-.LEHB22
	.uleb128 0
	.uleb128 0
.LLSDACSE3780:
	.byte	0x1
	.byte	0
	.align 4
	.long	0

.LLSDATT3780:
	.section	.text._ZNSt6vectorIjSaIjEE20_M_allocate_and_copyIN9__gnu_cxx17__normal_iteratorIPKjS1_EEEEPjmT_S9_,"axG",@progbits,_ZNSt6vectorIjSaIjEE20_M_allocate_and_copyIN9__gnu_cxx17__normal_iteratorIPKjS1_EEEEPjmT_S9_,comdat
	.size	_ZNSt6vectorIjSaIjEE20_M_allocate_and_copyIN9__gnu_cxx17__normal_iteratorIPKjS1_EEEEPjmT_S9_, .-_ZNSt6vectorIjSaIjEE20_M_allocate_and_copyIN9__gnu_cxx17__normal_iteratorIPKjS1_EEEEPjmT_S9_
	.section	.text._ZSt4copyIN9__gnu_cxx17__normal_iteratorIPKjSt6vectorIjSaIjEEEENS1_IPjS6_EEET0_T_SB_SA_,"axG",@progbits,_ZSt4copyIN9__gnu_cxx17__normal_iteratorIPKjSt6vectorIjSaIjEEEENS1_IPjS6_EEET0_T_SB_SA_,comdat
	.weak	_ZSt4copyIN9__gnu_cxx17__normal_iteratorIPKjSt6vectorIjSaIjEEEENS1_IPjS6_EEET0_T_SB_SA_
	.type	_ZSt4copyIN9__gnu_cxx17__normal_iteratorIPKjSt6vectorIjSaIjEEEENS1_IPjS6_EEET0_T_SB_SA_, @function
_ZSt4copyIN9__gnu_cxx17__normal_iteratorIPKjSt6vectorIjSaIjEEEENS1_IPjS6_EEET0_T_SB_SA_:
.LFB3781:
	.cfi_startproc
	endbr64
	pushq	%rbp
	.cfi_def_cfa_offset 16
	.cfi_offset 6, -16
	movq	%rsp, %rbp
	.cfi_def_cfa_register 6
	pushq	%rbx
	subq	$40, %rsp
	.cfi_offset 3, -24
	movq	%rdi, -24(%rbp)
	movq	%rsi, -32(%rbp)
	movq	%rdx, -40(%rbp)
	movq	-32(%rbp), %rax
	movq	%rax, %rdi
	call	_ZSt12__miter_baseIN9__gnu_cxx17__normal_iteratorIPKjSt6vectorIjSaIjEEEEET_S8_
	movq	%rax, %rbx
	movq	-24(%rbp), %rax
	movq	%rax, %rdi
	call	_ZSt12__miter_baseIN9__gnu_cxx17__normal_iteratorIPKjSt6vectorIjSaIjEEEEET_S8_
	movq	%rax, %rcx
	movq	-40(%rbp), %rax
	movq	%rax, %rdx
	movq	%rbx, %rsi
	movq	%rcx, %rdi
	call	_ZSt14__copy_move_a2ILb0EN9__gnu_cxx17__normal_iteratorIPKjSt6vectorIjSaIjEEEENS1_IPjS6_EEET1_T0_SB_SA_
	addq	$40, %rsp
	popq	%rbx
	popq	%rbp
	.cfi_def_cfa 7, 8
	ret
	.cfi_endproc
.LFE3781:
	.size	_ZSt4copyIN9__gnu_cxx17__normal_iteratorIPKjSt6vectorIjSaIjEEEENS1_IPjS6_EEET0_T_SB_SA_, .-_ZSt4copyIN9__gnu_cxx17__normal_iteratorIPKjSt6vectorIjSaIjEEEENS1_IPjS6_EEET0_T_SB_SA_
	.section	.text._ZSt8_DestroyIN9__gnu_cxx17__normal_iteratorIPjSt6vectorIjSaIjEEEEjEvT_S7_RSaIT0_E,"axG",@progbits,_ZSt8_DestroyIN9__gnu_cxx17__normal_iteratorIPjSt6vectorIjSaIjEEEEjEvT_S7_RSaIT0_E,comdat
	.weak	_ZSt8_DestroyIN9__gnu_cxx17__normal_iteratorIPjSt6vectorIjSaIjEEEEjEvT_S7_RSaIT0_E
	.type	_ZSt8_DestroyIN9__gnu_cxx17__normal_iteratorIPjSt6vectorIjSaIjEEEEjEvT_S7_RSaIT0_E, @function
_ZSt8_DestroyIN9__gnu_cxx17__normal_iteratorIPjSt6vectorIjSaIjEEEEjEvT_S7_RSaIT0_E:
.LFB3782:
	.cfi_startproc
	endbr64
	pushq	%rbp
	.cfi_def_cfa_offset 16
	.cfi_offset 6, -16
	movq	%rsp, %rbp
	.cfi_def_cfa_register 6
	subq	$32, %rsp
	movq	%rdi, -8(%rbp)
	movq	%rsi, -16(%rbp)
	movq	%rdx, -24(%rbp)
	movq	-16(%rbp), %rdx
	movq	-8(%rbp), %rax
	movq	%rdx, %rsi
	movq	%rax, %rdi
	call	_ZSt8_DestroyIN9__gnu_cxx17__normal_iteratorIPjSt6vectorIjSaIjEEEEEvT_S7_
	nop
	leave
	.cfi_def_cfa 7, 8
	ret
	.cfi_endproc
.LFE3782:
	.size	_ZSt8_DestroyIN9__gnu_cxx17__normal_iteratorIPjSt6vectorIjSaIjEEEEjEvT_S7_RSaIT0_E, .-_ZSt8_DestroyIN9__gnu_cxx17__normal_iteratorIPjSt6vectorIjSaIjEEEEjEvT_S7_RSaIT0_E
	.section	.text._ZSt4copyIPjS0_ET0_T_S2_S1_,"axG",@progbits,_ZSt4copyIPjS0_ET0_T_S2_S1_,comdat
	.weak	_ZSt4copyIPjS0_ET0_T_S2_S1_
	.type	_ZSt4copyIPjS0_ET0_T_S2_S1_, @function
_ZSt4copyIPjS0_ET0_T_S2_S1_:
.LFB3783:
	.cfi_startproc
	endbr64
	pushq	%rbp
	.cfi_def_cfa_offset 16
	.cfi_offset 6, -16
	movq	%rsp, %rbp
	.cfi_def_cfa_register 6
	pushq	%rbx
	subq	$40, %rsp
	.cfi_offset 3, -24
	movq	%rdi, -24(%rbp)
	movq	%rsi, -32(%rbp)
	movq	%rdx, -40(%rbp)
	movq	-32(%rbp), %rax
	movq	%rax, %rdi
	call	_ZSt12__miter_baseIPjET_S1_
	movq	%rax, %rbx
	movq	-24(%rbp), %rax
	movq	%rax, %rdi
	call	_ZSt12__miter_baseIPjET_S1_
	movq	%rax, %rcx
	movq	-40(%rbp), %rax
	movq	%rax, %rdx
	movq	%rbx, %rsi
	movq	%rcx, %rdi
	call	_ZSt14__copy_move_a2ILb0EPjS0_ET1_T0_S2_S1_
	addq	$40, %rsp
	popq	%rbx
	popq	%rbp
	.cfi_def_cfa 7, 8
	ret
	.cfi_endproc
.LFE3783:
	.size	_ZSt4copyIPjS0_ET0_T_S2_S1_, .-_ZSt4copyIPjS0_ET0_T_S2_S1_
	.section	.text._ZSt22__uninitialized_copy_aIPjS0_jET0_T_S2_S1_RSaIT1_E,"axG",@progbits,_ZSt22__uninitialized_copy_aIPjS0_jET0_T_S2_S1_RSaIT1_E,comdat
	.weak	_ZSt22__uninitialized_copy_aIPjS0_jET0_T_S2_S1_RSaIT1_E
	.type	_ZSt22__uninitialized_copy_aIPjS0_jET0_T_S2_S1_RSaIT1_E, @function
_ZSt22__uninitialized_copy_aIPjS0_jET0_T_S2_S1_RSaIT1_E:
.LFB3784:
	.cfi_startproc
	endbr64
	pushq	%rbp
	.cfi_def_cfa_offset 16
	.cfi_offset 6, -16
	movq	%rsp, %rbp
	.cfi_def_cfa_register 6
	subq	$32, %rsp
	movq	%rdi, -8(%rbp)
	movq	%rsi, -16(%rbp)
	movq	%rdx, -24(%rbp)
	movq	%rcx, -32(%rbp)
	movq	-24(%rbp), %rdx
	movq	-16(%rbp), %rcx
	movq	-8(%rbp), %rax
	movq	%rcx, %rsi
	movq	%rax, %rdi
	call	_ZSt18uninitialized_copyIPjS0_ET0_T_S2_S1_
	leave
	.cfi_def_cfa 7, 8
	ret
	.cfi_endproc
.LFE3784:
	.size	_ZSt22__uninitialized_copy_aIPjS0_jET0_T_S2_S1_RSaIT1_E, .-_ZSt22__uninitialized_copy_aIPjS0_jET0_T_S2_S1_RSaIT1_E
	.section	.text._ZN9__gnu_cxx13new_allocatorIjEC2Ev,"axG",@progbits,_ZN9__gnu_cxx13new_allocatorIjEC5Ev,comdat
	.align 2
	.weak	_ZN9__gnu_cxx13new_allocatorIjEC2Ev
	.type	_ZN9__gnu_cxx13new_allocatorIjEC2Ev, @function
_ZN9__gnu_cxx13new_allocatorIjEC2Ev:
.LFB3786:
	.cfi_startproc
	endbr64
	pushq	%rbp
	.cfi_def_cfa_offset 16
	.cfi_offset 6, -16
	movq	%rsp, %rbp
	.cfi_def_cfa_register 6
	movq	%rdi, -8(%rbp)
	nop
	popq	%rbp
	.cfi_def_cfa 7, 8
	ret
	.cfi_endproc
.LFE3786:
	.size	_ZN9__gnu_cxx13new_allocatorIjEC2Ev, .-_ZN9__gnu_cxx13new_allocatorIjEC2Ev
	.weak	_ZN9__gnu_cxx13new_allocatorIjEC1Ev
	.set	_ZN9__gnu_cxx13new_allocatorIjEC1Ev,_ZN9__gnu_cxx13new_allocatorIjEC2Ev
	.section	.text._ZNSt12_Vector_baseIjSaIjEEC2ERKS0_,"axG",@progbits,_ZNSt12_Vector_baseIjSaIjEEC5ERKS0_,comdat
	.align 2
	.weak	_ZNSt12_Vector_baseIjSaIjEEC2ERKS0_
	.type	_ZNSt12_Vector_baseIjSaIjEEC2ERKS0_, @function
_ZNSt12_Vector_baseIjSaIjEEC2ERKS0_:
.LFB3789:
	.cfi_startproc
	endbr64
	pushq	%rbp
	.cfi_def_cfa_offset 16
	.cfi_offset 6, -16
	movq	%rsp, %rbp
	.cfi_def_cfa_register 6
	subq	$16, %rsp
	movq	%rdi, -8(%rbp)
	movq	%rsi, -16(%rbp)
	movq	-8(%rbp), %rax
	movq	-16(%rbp), %rdx
	movq	%rdx, %rsi
	movq	%rax, %rdi
	call	_ZNSt12_Vector_baseIjSaIjEE12_Vector_implC1ERKS0_
	nop
	leave
	.cfi_def_cfa 7, 8
	ret
	.cfi_endproc
.LFE3789:
	.size	_ZNSt12_Vector_baseIjSaIjEEC2ERKS0_, .-_ZNSt12_Vector_baseIjSaIjEEC2ERKS0_
	.weak	_ZNSt12_Vector_baseIjSaIjEEC1ERKS0_
	.set	_ZNSt12_Vector_baseIjSaIjEEC1ERKS0_,_ZNSt12_Vector_baseIjSaIjEEC2ERKS0_
	.section	.text._ZNSt6vectorIjSaIjEE19_M_range_initializeIPKjEEvT_S5_St20forward_iterator_tag,"axG",@progbits,_ZNSt6vectorIjSaIjEE19_M_range_initializeIPKjEEvT_S5_St20forward_iterator_tag,comdat
	.align 2
	.weak	_ZNSt6vectorIjSaIjEE19_M_range_initializeIPKjEEvT_S5_St20forward_iterator_tag
	.type	_ZNSt6vectorIjSaIjEE19_M_range_initializeIPKjEEvT_S5_St20forward_iterator_tag, @function
_ZNSt6vectorIjSaIjEE19_M_range_initializeIPKjEEvT_S5_St20forward_iterator_tag:
.LFB3791:
	.cfi_startproc
	endbr64
	pushq	%rbp
	.cfi_def_cfa_offset 16
	.cfi_offset 6, -16
	movq	%rsp, %rbp
	.cfi_def_cfa_register 6
	pushq	%rbx
	subq	$56, %rsp
	.cfi_offset 3, -24
	movq	%rdi, -40(%rbp)
	movq	%rsi, -48(%rbp)
	movq	%rdx, -56(%rbp)
	movq	-56(%rbp), %rdx
	movq	-48(%rbp), %rax
	movq	%rdx, %rsi
	movq	%rax, %rdi
	call	_ZSt8distanceIPKjENSt15iterator_traitsIT_E15difference_typeES3_S3_
	movq	%rax, -24(%rbp)
	movq	-40(%rbp), %rbx
	movq	-40(%rbp), %rax
	movq	%rax, %rdi
	call	_ZNSt12_Vector_baseIjSaIjEE19_M_get_Tp_allocatorEv
	movq	%rax, %rdx
	movq	-24(%rbp), %rax
	movq	%rdx, %rsi
	movq	%rax, %rdi
	call	_ZNSt6vectorIjSaIjEE17_S_check_init_lenEmRKS0_
	movq	%rax, %rsi
	movq	%rbx, %rdi
	call	_ZNSt12_Vector_baseIjSaIjEE11_M_allocateEm
	movq	-40(%rbp), %rdx
	movq	%rax, (%rdx)
	movq	-40(%rbp), %rax
	movq	(%rax), %rax
	movq	-24(%rbp), %rdx
	salq	$2, %rdx
	addq	%rax, %rdx
	movq	-40(%rbp), %rax
	movq	%rdx, 16(%rax)
	movq	-40(%rbp), %rax
	movq	%rax, %rdi
	call	_ZNSt12_Vector_baseIjSaIjEE19_M_get_Tp_allocatorEv
	movq	%rax, %rcx
	movq	-40(%rbp), %rax
	movq	(%rax), %rdx
	movq	-56(%rbp), %rsi
	movq	-48(%rbp), %rax
	movq	%rax, %rdi
	call	_ZSt22__uninitialized_copy_aIPKjPjjET0_T_S4_S3_RSaIT1_E
	movq	-40(%rbp), %rdx
	movq	%rax, 8(%rdx)
	nop
	addq	$56, %rsp
	popq	%rbx
	popq	%rbp
	.cfi_def_cfa 7, 8
	ret
	.cfi_endproc
.LFE3791:
	.size	_ZNSt6vectorIjSaIjEE19_M_range_initializeIPKjEEvT_S5_St20forward_iterator_tag, .-_ZNSt6vectorIjSaIjEE19_M_range_initializeIPKjEEvT_S5_St20forward_iterator_tag
	.section	.text._ZSt4moveIRSt6vectorIjSaIjEEEONSt16remove_referenceIT_E4typeEOS5_,"axG",@progbits,_ZSt4moveIRSt6vectorIjSaIjEEEONSt16remove_referenceIT_E4typeEOS5_,comdat
	.weak	_ZSt4moveIRSt6vectorIjSaIjEEEONSt16remove_referenceIT_E4typeEOS5_
	.type	_ZSt4moveIRSt6vectorIjSaIjEEEONSt16remove_referenceIT_E4typeEOS5_, @function
_ZSt4moveIRSt6vectorIjSaIjEEEONSt16remove_referenceIT_E4typeEOS5_:
.LFB3792:
	.cfi_startproc
	endbr64
	pushq	%rbp
	.cfi_def_cfa_offset 16
	.cfi_offset 6, -16
	movq	%rsp, %rbp
	.cfi_def_cfa_register 6
	movq	%rdi, -8(%rbp)
	movq	-8(%rbp), %rax
	popq	%rbp
	.cfi_def_cfa 7, 8
	ret
	.cfi_endproc
.LFE3792:
	.size	_ZSt4moveIRSt6vectorIjSaIjEEEONSt16remove_referenceIT_E4typeEOS5_, .-_ZSt4moveIRSt6vectorIjSaIjEEEONSt16remove_referenceIT_E4typeEOS5_
	.section	.text._ZNSt6vectorIjSaIjEE14_M_move_assignEOS1_St17integral_constantIbLb1EE,"axG",@progbits,_ZNSt6vectorIjSaIjEE14_M_move_assignEOS1_St17integral_constantIbLb1EE,comdat
	.align 2
	.weak	_ZNSt6vectorIjSaIjEE14_M_move_assignEOS1_St17integral_constantIbLb1EE
	.type	_ZNSt6vectorIjSaIjEE14_M_move_assignEOS1_St17integral_constantIbLb1EE, @function
_ZNSt6vectorIjSaIjEE14_M_move_assignEOS1_St17integral_constantIbLb1EE:
.LFB3793:
	.cfi_startproc
	.cfi_personality 0x9b,DW.ref.__gxx_personality_v0
	.cfi_lsda 0x1b,.LLSDA3793
	endbr64
	pushq	%rbp
	.cfi_def_cfa_offset 16
	.cfi_offset 6, -16
	movq	%rsp, %rbp
	.cfi_def_cfa_register 6
	pushq	%rbx
	subq	$72, %rsp
	.cfi_offset 3, -24
	movq	%rdi, -72(%rbp)
	movq	%rsi, -80(%rbp)
	movq	%fs:40, %rax
	movq	%rax, -24(%rbp)
	xorl	%eax, %eax
	movq	-72(%rbp), %rdx
	leaq	-49(%rbp), %rax
	movq	%rdx, %rsi
	movq	%rax, %rdi
	call	_ZNKSt12_Vector_baseIjSaIjEE13get_allocatorEv
	leaq	-49(%rbp), %rdx
	leaq	-48(%rbp), %rax
	movq	%rdx, %rsi
	movq	%rax, %rdi
	call	_ZNSt6vectorIjSaIjEEC1ERKS0_
	leaq	-49(%rbp), %rax
	movq	%rax, %rdi
	call	_ZNSaIjED1Ev
	movq	-72(%rbp), %rax
	movq	-80(%rbp), %rdx
	movq	%rdx, %rsi
	movq	%rax, %rdi
	call	_ZNSt12_Vector_baseIjSaIjEE17_Vector_impl_data12_M_swap_dataERS2_
	movq	-80(%rbp), %rdx
	leaq	-48(%rbp), %rax
	movq	%rdx, %rsi
	movq	%rax, %rdi
	call	_ZNSt12_Vector_baseIjSaIjEE17_Vector_impl_data12_M_swap_dataERS2_
	movq	-80(%rbp), %rax
	movq	%rax, %rdi
	call	_ZNSt12_Vector_baseIjSaIjEE19_M_get_Tp_allocatorEv
	movq	%rax, %rbx
	movq	-72(%rbp), %rax
	movq	%rax, %rdi
	call	_ZNSt12_Vector_baseIjSaIjEE19_M_get_Tp_allocatorEv
	movq	%rbx, %rsi
	movq	%rax, %rdi
	call	_ZSt15__alloc_on_moveISaIjEEvRT_S2_
	leaq	-48(%rbp), %rax
	movq	%rax, %rdi
	call	_ZNSt6vectorIjSaIjEED1Ev
	nop
	movq	-24(%rbp), %rax
	xorq	%fs:40, %rax
	je	.L216
	call	__stack_chk_fail@PLT
.L216:
	addq	$72, %rsp
	popq	%rbx
	popq	%rbp
	.cfi_def_cfa 7, 8
	ret
	.cfi_endproc
.LFE3793:
	.section	.gcc_except_table
.LLSDA3793:
	.byte	0xff
	.byte	0xff
	.byte	0x1
	.uleb128 .LLSDACSE3793-.LLSDACSB3793
.LLSDACSB3793:
.LLSDACSE3793:
	.section	.text._ZNSt6vectorIjSaIjEE14_M_move_assignEOS1_St17integral_constantIbLb1EE,"axG",@progbits,_ZNSt6vectorIjSaIjEE14_M_move_assignEOS1_St17integral_constantIbLb1EE,comdat
	.size	_ZNSt6vectorIjSaIjEE14_M_move_assignEOS1_St17integral_constantIbLb1EE, .-_ZNSt6vectorIjSaIjEE14_M_move_assignEOS1_St17integral_constantIbLb1EE
	.section	.text._ZNKSt6chrono10time_pointINS_3_V212steady_clockENS_8durationIlSt5ratioILl1ELl1000000000EEEEE16time_since_epochEv,"axG",@progbits,_ZNKSt6chrono10time_pointINS_3_V212steady_clockENS_8durationIlSt5ratioILl1ELl1000000000EEEEE16time_since_epochEv,comdat
	.align 2
	.weak	_ZNKSt6chrono10time_pointINS_3_V212steady_clockENS_8durationIlSt5ratioILl1ELl1000000000EEEEE16time_since_epochEv
	.type	_ZNKSt6chrono10time_pointINS_3_V212steady_clockENS_8durationIlSt5ratioILl1ELl1000000000EEEEE16time_since_epochEv, @function
_ZNKSt6chrono10time_pointINS_3_V212steady_clockENS_8durationIlSt5ratioILl1ELl1000000000EEEEE16time_since_epochEv:
.LFB3795:
	.cfi_startproc
	endbr64
	pushq	%rbp
	.cfi_def_cfa_offset 16
	.cfi_offset 6, -16
	movq	%rsp, %rbp
	.cfi_def_cfa_register 6
	movq	%rdi, -8(%rbp)
	movq	-8(%rbp), %rax
	movq	(%rax), %rax
	popq	%rbp
	.cfi_def_cfa 7, 8
	ret
	.cfi_endproc
.LFE3795:
	.size	_ZNKSt6chrono10time_pointINS_3_V212steady_clockENS_8durationIlSt5ratioILl1ELl1000000000EEEEE16time_since_epochEv, .-_ZNKSt6chrono10time_pointINS_3_V212steady_clockENS_8durationIlSt5ratioILl1ELl1000000000EEEEE16time_since_epochEv
	.section	.text._ZNSt6chronomiIlSt5ratioILl1ELl1000000000EElS2_EENSt11common_typeIJNS_8durationIT_T0_EENS4_IT1_T2_EEEE4typeERKS7_RKSA_,"axG",@progbits,_ZNSt6chronomiIlSt5ratioILl1ELl1000000000EElS2_EENSt11common_typeIJNS_8durationIT_T0_EENS4_IT1_T2_EEEE4typeERKS7_RKSA_,comdat
	.weak	_ZNSt6chronomiIlSt5ratioILl1ELl1000000000EElS2_EENSt11common_typeIJNS_8durationIT_T0_EENS4_IT1_T2_EEEE4typeERKS7_RKSA_
	.type	_ZNSt6chronomiIlSt5ratioILl1ELl1000000000EElS2_EENSt11common_typeIJNS_8durationIT_T0_EENS4_IT1_T2_EEEE4typeERKS7_RKSA_, @function
_ZNSt6chronomiIlSt5ratioILl1ELl1000000000EElS2_EENSt11common_typeIJNS_8durationIT_T0_EENS4_IT1_T2_EEEE4typeERKS7_RKSA_:
.LFB3796:
	.cfi_startproc
	endbr64
	pushq	%rbp
	.cfi_def_cfa_offset 16
	.cfi_offset 6, -16
	movq	%rsp, %rbp
	.cfi_def_cfa_register 6
	pushq	%rbx
	subq	$72, %rsp
	.cfi_offset 3, -24
	movq	%rdi, -72(%rbp)
	movq	%rsi, -80(%rbp)
	movq	%fs:40, %rax
	movq	%rax, -24(%rbp)
	xorl	%eax, %eax
	movq	-72(%rbp), %rax
	movq	(%rax), %rax
	movq	%rax, -56(%rbp)
	leaq	-56(%rbp), %rax
	movq	%rax, %rdi
	call	_ZNKSt6chrono8durationIlSt5ratioILl1ELl1000000000EEE5countEv
	movq	%rax, %rbx
	movq	-80(%rbp), %rax
	movq	(%rax), %rax
	movq	%rax, -48(%rbp)
	leaq	-48(%rbp), %rax
	movq	%rax, %rdi
	call	_ZNKSt6chrono8durationIlSt5ratioILl1ELl1000000000EEE5countEv
	subq	%rax, %rbx
	movq	%rbx, %rax
	movq	%rax, -40(%rbp)
	leaq	-40(%rbp), %rdx
	leaq	-32(%rbp), %rax
	movq	%rdx, %rsi
	movq	%rax, %rdi
	call	_ZNSt6chrono8durationIlSt5ratioILl1ELl1000000000EEEC1IlvEERKT_
	movq	-32(%rbp), %rax
	movq	-24(%rbp), %rcx
	xorq	%fs:40, %rcx
	je	.L221
	call	__stack_chk_fail@PLT
.L221:
	addq	$72, %rsp
	popq	%rbx
	popq	%rbp
	.cfi_def_cfa 7, 8
	ret
	.cfi_endproc
.LFE3796:
	.size	_ZNSt6chronomiIlSt5ratioILl1ELl1000000000EElS2_EENSt11common_typeIJNS_8durationIT_T0_EENS4_IT1_T2_EEEE4typeERKS7_RKSA_, .-_ZNSt6chronomiIlSt5ratioILl1ELl1000000000EElS2_EENSt11common_typeIJNS_8durationIT_T0_EENS4_IT1_T2_EEEE4typeERKS7_RKSA_
	.section	.text._ZNSt6chrono20__duration_cast_implINS_8durationIlSt5ratioILl1ELl1000EEEES2_ILl1ELl1000000EElLb1ELb0EE6__castIlS2_ILl1ELl1000000000EEEES4_RKNS1_IT_T0_EE,"axG",@progbits,_ZNSt6chrono20__duration_cast_implINS_8durationIlSt5ratioILl1ELl1000EEEES2_ILl1ELl1000000EElLb1ELb0EE6__castIlS2_ILl1ELl1000000000EEEES4_RKNS1_IT_T0_EE,comdat
	.weak	_ZNSt6chrono20__duration_cast_implINS_8durationIlSt5ratioILl1ELl1000EEEES2_ILl1ELl1000000EElLb1ELb0EE6__castIlS2_ILl1ELl1000000000EEEES4_RKNS1_IT_T0_EE
	.type	_ZNSt6chrono20__duration_cast_implINS_8durationIlSt5ratioILl1ELl1000EEEES2_ILl1ELl1000000EElLb1ELb0EE6__castIlS2_ILl1ELl1000000000EEEES4_RKNS1_IT_T0_EE, @function
_ZNSt6chrono20__duration_cast_implINS_8durationIlSt5ratioILl1ELl1000EEEES2_ILl1ELl1000000EElLb1ELb0EE6__castIlS2_ILl1ELl1000000000EEEES4_RKNS1_IT_T0_EE:
.LFB3797:
	.cfi_startproc
	endbr64
	pushq	%rbp
	.cfi_def_cfa_offset 16
	.cfi_offset 6, -16
	movq	%rsp, %rbp
	.cfi_def_cfa_register 6
	subq	$48, %rsp
	movq	%rdi, -40(%rbp)
	movq	%fs:40, %rax
	movq	%rax, -8(%rbp)
	xorl	%eax, %eax
	movq	-40(%rbp), %rax
	movq	%rax, %rdi
	call	_ZNKSt6chrono8durationIlSt5ratioILl1ELl1000000000EEE5countEv
	movq	%rax, %rcx
	movabsq	$4835703278458516699, %rdx
	movq	%rcx, %rax
	imulq	%rdx
	sarq	$18, %rdx
	movq	%rcx, %rax
	sarq	$63, %rax
	subq	%rax, %rdx
	movq	%rdx, %rax
	movq	%rax, -24(%rbp)
	leaq	-24(%rbp), %rdx
	leaq	-16(%rbp), %rax
	movq	%rdx, %rsi
	movq	%rax, %rdi
	call	_ZNSt6chrono8durationIlSt5ratioILl1ELl1000EEEC1IlvEERKT_
	movq	-16(%rbp), %rax
	movq	-8(%rbp), %rsi
	xorq	%fs:40, %rsi
	je	.L224
	call	__stack_chk_fail@PLT
.L224:
	leave
	.cfi_def_cfa 7, 8
	ret
	.cfi_endproc
.LFE3797:
	.size	_ZNSt6chrono20__duration_cast_implINS_8durationIlSt5ratioILl1ELl1000EEEES2_ILl1ELl1000000EElLb1ELb0EE6__castIlS2_ILl1ELl1000000000EEEES4_RKNS1_IT_T0_EE, .-_ZNSt6chrono20__duration_cast_implINS_8durationIlSt5ratioILl1ELl1000EEEES2_ILl1ELl1000000EElLb1ELb0EE6__castIlS2_ILl1ELl1000000000EEEES4_RKNS1_IT_T0_EE
	.section	.text._ZNSt16allocator_traitsISaIjEE10deallocateERS0_Pjm,"axG",@progbits,_ZNSt16allocator_traitsISaIjEE10deallocateERS0_Pjm,comdat
	.weak	_ZNSt16allocator_traitsISaIjEE10deallocateERS0_Pjm
	.type	_ZNSt16allocator_traitsISaIjEE10deallocateERS0_Pjm, @function
_ZNSt16allocator_traitsISaIjEE10deallocateERS0_Pjm:
.LFB3834:
	.cfi_startproc
	endbr64
	pushq	%rbp
	.cfi_def_cfa_offset 16
	.cfi_offset 6, -16
	movq	%rsp, %rbp
	.cfi_def_cfa_register 6
	subq	$32, %rsp
	movq	%rdi, -8(%rbp)
	movq	%rsi, -16(%rbp)
	movq	%rdx, -24(%rbp)
	movq	-24(%rbp), %rdx
	movq	-16(%rbp), %rcx
	movq	-8(%rbp), %rax
	movq	%rcx, %rsi
	movq	%rax, %rdi
	call	_ZN9__gnu_cxx13new_allocatorIjE10deallocateEPjm
	nop
	leave
	.cfi_def_cfa 7, 8
	ret
	.cfi_endproc
.LFE3834:
	.size	_ZNSt16allocator_traitsISaIjEE10deallocateERS0_Pjm, .-_ZNSt16allocator_traitsISaIjEE10deallocateERS0_Pjm
	.section	.text._ZSt8_DestroyIPjEvT_S1_,"axG",@progbits,_ZSt8_DestroyIPjEvT_S1_,comdat
	.weak	_ZSt8_DestroyIPjEvT_S1_
	.type	_ZSt8_DestroyIPjEvT_S1_, @function
_ZSt8_DestroyIPjEvT_S1_:
.LFB3835:
	.cfi_startproc
	endbr64
	pushq	%rbp
	.cfi_def_cfa_offset 16
	.cfi_offset 6, -16
	movq	%rsp, %rbp
	.cfi_def_cfa_register 6
	subq	$16, %rsp
	movq	%rdi, -8(%rbp)
	movq	%rsi, -16(%rbp)
	movq	-16(%rbp), %rdx
	movq	-8(%rbp), %rax
	movq	%rdx, %rsi
	movq	%rax, %rdi
	call	_ZNSt12_Destroy_auxILb1EE9__destroyIPjEEvT_S3_
	nop
	leave
	.cfi_def_cfa 7, 8
	ret
	.cfi_endproc
.LFE3835:
	.size	_ZSt8_DestroyIPjEvT_S1_, .-_ZSt8_DestroyIPjEvT_S1_
	.section	.text._ZSt7forwardIjEOT_RNSt16remove_referenceIS0_E4typeE,"axG",@progbits,_ZSt7forwardIjEOT_RNSt16remove_referenceIS0_E4typeE,comdat
	.weak	_ZSt7forwardIjEOT_RNSt16remove_referenceIS0_E4typeE
	.type	_ZSt7forwardIjEOT_RNSt16remove_referenceIS0_E4typeE, @function
_ZSt7forwardIjEOT_RNSt16remove_referenceIS0_E4typeE:
.LFB3837:
	.cfi_startproc
	endbr64
	pushq	%rbp
	.cfi_def_cfa_offset 16
	.cfi_offset 6, -16
	movq	%rsp, %rbp
	.cfi_def_cfa_register 6
	movq	%rdi, -8(%rbp)
	movq	-8(%rbp), %rax
	popq	%rbp
	.cfi_def_cfa 7, 8
	ret
	.cfi_endproc
.LFE3837:
	.size	_ZSt7forwardIjEOT_RNSt16remove_referenceIS0_E4typeE, .-_ZSt7forwardIjEOT_RNSt16remove_referenceIS0_E4typeE
	.section	.text._ZNSt16allocator_traitsISaIjEE9constructIjJjEEEvRS0_PT_DpOT0_,"axG",@progbits,_ZNSt16allocator_traitsISaIjEE9constructIjJjEEEvRS0_PT_DpOT0_,comdat
	.weak	_ZNSt16allocator_traitsISaIjEE9constructIjJjEEEvRS0_PT_DpOT0_
	.type	_ZNSt16allocator_traitsISaIjEE9constructIjJjEEEvRS0_PT_DpOT0_, @function
_ZNSt16allocator_traitsISaIjEE9constructIjJjEEEvRS0_PT_DpOT0_:
.LFB3838:
	.cfi_startproc
	endbr64
	pushq	%rbp
	.cfi_def_cfa_offset 16
	.cfi_offset 6, -16
	movq	%rsp, %rbp
	.cfi_def_cfa_register 6
	subq	$32, %rsp
	movq	%rdi, -8(%rbp)
	movq	%rsi, -16(%rbp)
	movq	%rdx, -24(%rbp)
	movq	-24(%rbp), %rax
	movq	%rax, %rdi
	call	_ZSt7forwardIjEOT_RNSt16remove_referenceIS0_E4typeE
	movq	%rax, %rdx
	movq	-16(%rbp), %rcx
	movq	-8(%rbp), %rax
	movq	%rcx, %rsi
	movq	%rax, %rdi
	call	_ZN9__gnu_cxx13new_allocatorIjE9constructIjJjEEEvPT_DpOT0_
	nop
	leave
	.cfi_def_cfa 7, 8
	ret
	.cfi_endproc
.LFE3838:
	.size	_ZNSt16allocator_traitsISaIjEE9constructIjJjEEEvRS0_PT_DpOT0_, .-_ZNSt16allocator_traitsISaIjEE9constructIjJjEEEvRS0_PT_DpOT0_
	.section	.text._ZNSt6vectorIjSaIjEE15_S_use_relocateEv,"axG",@progbits,_ZNSt6vectorIjSaIjEE15_S_use_relocateEv,comdat
	.weak	_ZNSt6vectorIjSaIjEE15_S_use_relocateEv
	.type	_ZNSt6vectorIjSaIjEE15_S_use_relocateEv, @function
_ZNSt6vectorIjSaIjEE15_S_use_relocateEv:
.LFB3840:
	.cfi_startproc
	endbr64
	pushq	%rbp
	.cfi_def_cfa_offset 16
	.cfi_offset 6, -16
	movq	%rsp, %rbp
	.cfi_def_cfa_register 6
	subq	$16, %rsp
	movq	%fs:40, %rax
	movq	%rax, -8(%rbp)
	xorl	%eax, %eax
	call	_ZNSt6vectorIjSaIjEE19_S_nothrow_relocateESt17integral_constantIbLb1EE
	movq	-8(%rbp), %rdx
	xorq	%fs:40, %rdx
	je	.L232
	call	__stack_chk_fail@PLT
.L232:
	leave
	.cfi_def_cfa 7, 8
	ret
	.cfi_endproc
.LFE3840:
	.size	_ZNSt6vectorIjSaIjEE15_S_use_relocateEv, .-_ZNSt6vectorIjSaIjEE15_S_use_relocateEv
	.section	.text._ZNSt6vectorIjSaIjEE19_S_nothrow_relocateESt17integral_constantIbLb1EE,"axG",@progbits,_ZNSt6vectorIjSaIjEE19_S_nothrow_relocateESt17integral_constantIbLb1EE,comdat
	.weak	_ZNSt6vectorIjSaIjEE19_S_nothrow_relocateESt17integral_constantIbLb1EE
	.type	_ZNSt6vectorIjSaIjEE19_S_nothrow_relocateESt17integral_constantIbLb1EE, @function
_ZNSt6vectorIjSaIjEE19_S_nothrow_relocateESt17integral_constantIbLb1EE:
.LFB3841:
	.cfi_startproc
	endbr64
	pushq	%rbp
	.cfi_def_cfa_offset 16
	.cfi_offset 6, -16
	movq	%rsp, %rbp
	.cfi_def_cfa_register 6
	movl	$1, %eax
	popq	%rbp
	.cfi_def_cfa 7, 8
	ret
	.cfi_endproc
.LFE3841:
	.size	_ZNSt6vectorIjSaIjEE19_S_nothrow_relocateESt17integral_constantIbLb1EE, .-_ZNSt6vectorIjSaIjEE19_S_nothrow_relocateESt17integral_constantIbLb1EE
	.section	.rodata
.LC3:
	.string	"vector::_M_realloc_insert"
	.section	.text._ZNSt6vectorIjSaIjEE17_M_realloc_insertIJjEEEvN9__gnu_cxx17__normal_iteratorIPjS1_EEDpOT_,"axG",@progbits,_ZNSt6vectorIjSaIjEE17_M_realloc_insertIJjEEEvN9__gnu_cxx17__normal_iteratorIPjS1_EEDpOT_,comdat
	.align 2
	.weak	_ZNSt6vectorIjSaIjEE17_M_realloc_insertIJjEEEvN9__gnu_cxx17__normal_iteratorIPjS1_EEDpOT_
	.type	_ZNSt6vectorIjSaIjEE17_M_realloc_insertIJjEEEvN9__gnu_cxx17__normal_iteratorIPjS1_EEDpOT_, @function
_ZNSt6vectorIjSaIjEE17_M_realloc_insertIJjEEEvN9__gnu_cxx17__normal_iteratorIPjS1_EEDpOT_:
.LFB3839:
	.cfi_startproc
	.cfi_personality 0x9b,DW.ref.__gxx_personality_v0
	.cfi_lsda 0x1b,.LLSDA3839
	endbr64
	pushq	%rbp
	.cfi_def_cfa_offset 16
	.cfi_offset 6, -16
	movq	%rsp, %rbp
	.cfi_def_cfa_register 6
	pushq	%rbx
	subq	$104, %rsp
	.cfi_offset 3, -24
	movq	%rdi, -88(%rbp)
	movq	%rsi, -96(%rbp)
	movq	%rdx, -104(%rbp)
	movq	%fs:40, %rax
	movq	%rax, -24(%rbp)
	xorl	%eax, %eax
	movq	-88(%rbp), %rax
	leaq	.LC3(%rip), %rdx
	movl	$1, %esi
	movq	%rax, %rdi
.LEHB23:
	call	_ZNKSt6vectorIjSaIjEE12_M_check_lenEmPKc
	movq	%rax, -64(%rbp)
	movq	-88(%rbp), %rax
	movq	(%rax), %rax
	movq	%rax, -56(%rbp)
	movq	-88(%rbp), %rax
	movq	8(%rax), %rax
	movq	%rax, -48(%rbp)
	movq	-88(%rbp), %rax
	movq	%rax, %rdi
	call	_ZNSt6vectorIjSaIjEE5beginEv
	movq	%rax, -80(%rbp)
	leaq	-80(%rbp), %rdx
	leaq	-96(%rbp), %rax
	movq	%rdx, %rsi
	movq	%rax, %rdi
	call	_ZN9__gnu_cxxmiIPjSt6vectorIjSaIjEEEENS_17__normal_iteratorIT_T0_E15difference_typeERKS8_SB_
	movq	%rax, -40(%rbp)
	movq	-88(%rbp), %rax
	movq	-64(%rbp), %rdx
	movq	%rdx, %rsi
	movq	%rax, %rdi
	call	_ZNSt12_Vector_baseIjSaIjEE11_M_allocateEm
.LEHE23:
	movq	%rax, -32(%rbp)
	movq	-32(%rbp), %rax
	movq	%rax, -72(%rbp)
	movq	-104(%rbp), %rax
	movq	%rax, %rdi
	call	_ZSt7forwardIjEOT_RNSt16remove_referenceIS0_E4typeE
	movq	%rax, %rdx
	movq	-40(%rbp), %rax
	leaq	0(,%rax,4), %rcx
	movq	-32(%rbp), %rax
	addq	%rax, %rcx
	movq	-88(%rbp), %rax
	movq	%rcx, %rsi
	movq	%rax, %rdi
	call	_ZNSt16allocator_traitsISaIjEE9constructIjJjEEEvRS0_PT_DpOT0_
	movq	$0, -72(%rbp)
	call	_ZNSt6vectorIjSaIjEE15_S_use_relocateEv
	testb	%al, %al
	je	.L236
	movq	-88(%rbp), %rax
	movq	%rax, %rdi
	call	_ZNSt12_Vector_baseIjSaIjEE19_M_get_Tp_allocatorEv
	movq	%rax, %rbx
	leaq	-96(%rbp), %rax
	movq	%rax, %rdi
	call	_ZNK9__gnu_cxx17__normal_iteratorIPjSt6vectorIjSaIjEEE4baseEv
	movq	(%rax), %rsi
	movq	-32(%rbp), %rdx
	movq	-56(%rbp), %rax
	movq	%rbx, %rcx
	movq	%rax, %rdi
	call	_ZNSt6vectorIjSaIjEE11_S_relocateEPjS2_S2_RS0_
	movq	%rax, -72(%rbp)
	addq	$4, -72(%rbp)
	movq	-88(%rbp), %rax
	movq	%rax, %rdi
	call	_ZNSt12_Vector_baseIjSaIjEE19_M_get_Tp_allocatorEv
	movq	%rax, %rbx
	leaq	-96(%rbp), %rax
	movq	%rax, %rdi
	call	_ZNK9__gnu_cxx17__normal_iteratorIPjSt6vectorIjSaIjEEE4baseEv
	movq	(%rax), %rax
	movq	-72(%rbp), %rdx
	movq	-48(%rbp), %rsi
	movq	%rbx, %rcx
	movq	%rax, %rdi
	call	_ZNSt6vectorIjSaIjEE11_S_relocateEPjS2_S2_RS0_
	movq	%rax, -72(%rbp)
	jmp	.L237
.L236:
	movq	-88(%rbp), %rax
	movq	%rax, %rdi
	call	_ZNSt12_Vector_baseIjSaIjEE19_M_get_Tp_allocatorEv
	movq	%rax, %rbx
	leaq	-96(%rbp), %rax
	movq	%rax, %rdi
	call	_ZNK9__gnu_cxx17__normal_iteratorIPjSt6vectorIjSaIjEEE4baseEv
	movq	(%rax), %rsi
	movq	-32(%rbp), %rdx
	movq	-56(%rbp), %rax
	movq	%rbx, %rcx
	movq	%rax, %rdi
.LEHB24:
	call	_ZSt34__uninitialized_move_if_noexcept_aIPjS0_SaIjEET0_T_S3_S2_RT1_
	movq	%rax, -72(%rbp)
	addq	$4, -72(%rbp)
	movq	-88(%rbp), %rax
	movq	%rax, %rdi
	call	_ZNSt12_Vector_baseIjSaIjEE19_M_get_Tp_allocatorEv
	movq	%rax, %rbx
	leaq	-96(%rbp), %rax
	movq	%rax, %rdi
	call	_ZNK9__gnu_cxx17__normal_iteratorIPjSt6vectorIjSaIjEEE4baseEv
	movq	(%rax), %rax
	movq	-72(%rbp), %rdx
	movq	-48(%rbp), %rsi
	movq	%rbx, %rcx
	movq	%rax, %rdi
	call	_ZSt34__uninitialized_move_if_noexcept_aIPjS0_SaIjEET0_T_S3_S2_RT1_
.LEHE24:
	movq	%rax, -72(%rbp)
.L237:
	call	_ZNSt6vectorIjSaIjEE15_S_use_relocateEv
	xorl	$1, %eax
	testb	%al, %al
	je	.L238
	movq	-88(%rbp), %rax
	movq	%rax, %rdi
	call	_ZNSt12_Vector_baseIjSaIjEE19_M_get_Tp_allocatorEv
	movq	%rax, %rdx
	movq	-48(%rbp), %rcx
	movq	-56(%rbp), %rax
	movq	%rcx, %rsi
	movq	%rax, %rdi
.LEHB25:
	call	_ZSt8_DestroyIPjjEvT_S1_RSaIT0_E
.L238:
	movq	-88(%rbp), %rax
	movq	-88(%rbp), %rdx
	movq	16(%rdx), %rdx
	subq	-56(%rbp), %rdx
	sarq	$2, %rdx
	movq	-56(%rbp), %rcx
	movq	%rcx, %rsi
	movq	%rax, %rdi
	call	_ZNSt12_Vector_baseIjSaIjEE13_M_deallocateEPjm
.LEHE25:
	movq	-88(%rbp), %rax
	movq	-32(%rbp), %rdx
	movq	%rdx, (%rax)
	movq	-88(%rbp), %rax
	movq	-72(%rbp), %rdx
	movq	%rdx, 8(%rax)
	movq	-64(%rbp), %rax
	leaq	0(,%rax,4), %rdx
	movq	-32(%rbp), %rax
	addq	%rax, %rdx
	movq	-88(%rbp), %rax
	movq	%rdx, 16(%rax)
	nop
	movq	-24(%rbp), %rax
	xorq	%fs:40, %rax
	je	.L243
	jmp	.L246
.L244:
	endbr64
	movq	%rax, %rdi
	call	__cxa_begin_catch@PLT
	cmpq	$0, -72(%rbp)
	jne	.L240
	movq	-40(%rbp), %rax
	leaq	0(,%rax,4), %rdx
	movq	-32(%rbp), %rax
	addq	%rax, %rdx
	movq	-88(%rbp), %rax
	movq	%rdx, %rsi
	movq	%rax, %rdi
	call	_ZNSt16allocator_traitsISaIjEE7destroyIjEEvRS0_PT_
	jmp	.L241
.L240:
	movq	-88(%rbp), %rax
	movq	%rax, %rdi
	call	_ZNSt12_Vector_baseIjSaIjEE19_M_get_Tp_allocatorEv
	movq	%rax, %rdx
	movq	-72(%rbp), %rcx
	movq	-32(%rbp), %rax
	movq	%rcx, %rsi
	movq	%rax, %rdi
.LEHB26:
	call	_ZSt8_DestroyIPjjEvT_S1_RSaIT0_E
.L241:
	movq	-88(%rbp), %rax
	movq	-64(%rbp), %rdx
	movq	-32(%rbp), %rcx
	movq	%rcx, %rsi
	movq	%rax, %rdi
	call	_ZNSt12_Vector_baseIjSaIjEE13_M_deallocateEPjm
	call	__cxa_rethrow@PLT
.LEHE26:
.L245:
	endbr64
	movq	%rax, %rbx
	call	__cxa_end_catch@PLT
	movq	%rbx, %rax
	movq	%rax, %rdi
.LEHB27:
	call	_Unwind_Resume@PLT
.LEHE27:
.L246:
	call	__stack_chk_fail@PLT
.L243:
	addq	$104, %rsp
	popq	%rbx
	popq	%rbp
	.cfi_def_cfa 7, 8
	ret
	.cfi_endproc
.LFE3839:
	.section	.gcc_except_table
	.align 4
.LLSDA3839:
	.byte	0xff
	.byte	0x9b
	.uleb128 .LLSDATT3839-.LLSDATTD3839
.LLSDATTD3839:
	.byte	0x1
	.uleb128 .LLSDACSE3839-.LLSDACSB3839
.LLSDACSB3839:
	.uleb128 .LEHB23-.LFB3839
	.uleb128 .LEHE23-.LEHB23
	.uleb128 0
	.uleb128 0
	.uleb128 .LEHB24-.LFB3839
	.uleb128 .LEHE24-.LEHB24
	.uleb128 .L244-.LFB3839
	.uleb128 0x1
	.uleb128 .LEHB25-.LFB3839
	.uleb128 .LEHE25-.LEHB25
	.uleb128 0
	.uleb128 0
	.uleb128 .LEHB26-.LFB3839
	.uleb128 .LEHE26-.LEHB26
	.uleb128 .L245-.LFB3839
	.uleb128 0
	.uleb128 .LEHB27-.LFB3839
	.uleb128 .LEHE27-.LEHB27
	.uleb128 0
	.uleb128 0
.LLSDACSE3839:
	.byte	0x1
	.byte	0
	.align 4
	.long	0

.LLSDATT3839:
	.section	.text._ZNSt6vectorIjSaIjEE17_M_realloc_insertIJjEEEvN9__gnu_cxx17__normal_iteratorIPjS1_EEDpOT_,"axG",@progbits,_ZNSt6vectorIjSaIjEE17_M_realloc_insertIJjEEEvN9__gnu_cxx17__normal_iteratorIPjS1_EEDpOT_,comdat
	.size	_ZNSt6vectorIjSaIjEE17_M_realloc_insertIJjEEEvN9__gnu_cxx17__normal_iteratorIPjS1_EEDpOT_, .-_ZNSt6vectorIjSaIjEE17_M_realloc_insertIJjEEEvN9__gnu_cxx17__normal_iteratorIPjS1_EEDpOT_
	.section	.text._ZN9__gnu_cxx13new_allocatorI6BigIntEC2Ev,"axG",@progbits,_ZN9__gnu_cxx13new_allocatorI6BigIntEC5Ev,comdat
	.align 2
	.weak	_ZN9__gnu_cxx13new_allocatorI6BigIntEC2Ev
	.type	_ZN9__gnu_cxx13new_allocatorI6BigIntEC2Ev, @function
_ZN9__gnu_cxx13new_allocatorI6BigIntEC2Ev:
.LFB3843:
	.cfi_startproc
	endbr64
	pushq	%rbp
	.cfi_def_cfa_offset 16
	.cfi_offset 6, -16
	movq	%rsp, %rbp
	.cfi_def_cfa_register 6
	movq	%rdi, -8(%rbp)
	nop
	popq	%rbp
	.cfi_def_cfa 7, 8
	ret
	.cfi_endproc
.LFE3843:
	.size	_ZN9__gnu_cxx13new_allocatorI6BigIntEC2Ev, .-_ZN9__gnu_cxx13new_allocatorI6BigIntEC2Ev
	.weak	_ZN9__gnu_cxx13new_allocatorI6BigIntEC1Ev
	.set	_ZN9__gnu_cxx13new_allocatorI6BigIntEC1Ev,_ZN9__gnu_cxx13new_allocatorI6BigIntEC2Ev
	.section	.text._ZNSt16allocator_traitsISaI6BigIntEE10deallocateERS1_PS0_m,"axG",@progbits,_ZNSt16allocator_traitsISaI6BigIntEE10deallocateERS1_PS0_m,comdat
	.weak	_ZNSt16allocator_traitsISaI6BigIntEE10deallocateERS1_PS0_m
	.type	_ZNSt16allocator_traitsISaI6BigIntEE10deallocateERS1_PS0_m, @function
_ZNSt16allocator_traitsISaI6BigIntEE10deallocateERS1_PS0_m:
.LFB3845:
	.cfi_startproc
	endbr64
	pushq	%rbp
	.cfi_def_cfa_offset 16
	.cfi_offset 6, -16
	movq	%rsp, %rbp
	.cfi_def_cfa_register 6
	subq	$32, %rsp
	movq	%rdi, -8(%rbp)
	movq	%rsi, -16(%rbp)
	movq	%rdx, -24(%rbp)
	movq	-24(%rbp), %rdx
	movq	-16(%rbp), %rcx
	movq	-8(%rbp), %rax
	movq	%rcx, %rsi
	movq	%rax, %rdi
	call	_ZN9__gnu_cxx13new_allocatorI6BigIntE10deallocateEPS1_m
	nop
	leave
	.cfi_def_cfa 7, 8
	ret
	.cfi_endproc
.LFE3845:
	.size	_ZNSt16allocator_traitsISaI6BigIntEE10deallocateERS1_PS0_m, .-_ZNSt16allocator_traitsISaI6BigIntEE10deallocateERS1_PS0_m
	.section	.text._ZSt8_DestroyIP6BigIntEvT_S2_,"axG",@progbits,_ZSt8_DestroyIP6BigIntEvT_S2_,comdat
	.weak	_ZSt8_DestroyIP6BigIntEvT_S2_
	.type	_ZSt8_DestroyIP6BigIntEvT_S2_, @function
_ZSt8_DestroyIP6BigIntEvT_S2_:
.LFB3846:
	.cfi_startproc
	endbr64
	pushq	%rbp
	.cfi_def_cfa_offset 16
	.cfi_offset 6, -16
	movq	%rsp, %rbp
	.cfi_def_cfa_register 6
	subq	$16, %rsp
	movq	%rdi, -8(%rbp)
	movq	%rsi, -16(%rbp)
	movq	-16(%rbp), %rdx
	movq	-8(%rbp), %rax
	movq	%rdx, %rsi
	movq	%rax, %rdi
	call	_ZNSt12_Destroy_auxILb0EE9__destroyIP6BigIntEEvT_S4_
	nop
	leave
	.cfi_def_cfa 7, 8
	ret
	.cfi_endproc
.LFE3846:
	.size	_ZSt8_DestroyIP6BigIntEvT_S2_, .-_ZSt8_DestroyIP6BigIntEvT_S2_
	.section	.text._ZNKSt16initializer_listIjE4sizeEv,"axG",@progbits,_ZNKSt16initializer_listIjE4sizeEv,comdat
	.align 2
	.weak	_ZNKSt16initializer_listIjE4sizeEv
	.type	_ZNKSt16initializer_listIjE4sizeEv, @function
_ZNKSt16initializer_listIjE4sizeEv:
.LFB3847:
	.cfi_startproc
	endbr64
	pushq	%rbp
	.cfi_def_cfa_offset 16
	.cfi_offset 6, -16
	movq	%rsp, %rbp
	.cfi_def_cfa_register 6
	movq	%rdi, -8(%rbp)
	movq	-8(%rbp), %rax
	movq	8(%rax), %rax
	popq	%rbp
	.cfi_def_cfa 7, 8
	ret
	.cfi_endproc
.LFE3847:
	.size	_ZNKSt16initializer_listIjE4sizeEv, .-_ZNKSt16initializer_listIjE4sizeEv
	.section	.text._ZSt8distanceIPKjENSt15iterator_traitsIT_E15difference_typeES3_S3_,"axG",@progbits,_ZSt8distanceIPKjENSt15iterator_traitsIT_E15difference_typeES3_S3_,comdat
	.weak	_ZSt8distanceIPKjENSt15iterator_traitsIT_E15difference_typeES3_S3_
	.type	_ZSt8distanceIPKjENSt15iterator_traitsIT_E15difference_typeES3_S3_, @function
_ZSt8distanceIPKjENSt15iterator_traitsIT_E15difference_typeES3_S3_:
.LFB3848:
	.cfi_startproc
	endbr64
	pushq	%rbp
	.cfi_def_cfa_offset 16
	.cfi_offset 6, -16
	movq	%rsp, %rbp
	.cfi_def_cfa_register 6
	subq	$32, %rsp
	movq	%rdi, -24(%rbp)
	movq	%rsi, -32(%rbp)
	movq	%fs:40, %rax
	movq	%rax, -8(%rbp)
	xorl	%eax, %eax
	leaq	-24(%rbp), %rax
	movq	%rax, %rdi
	call	_ZSt19__iterator_categoryIPKjENSt15iterator_traitsIT_E17iterator_categoryERKS3_
	movq	-24(%rbp), %rax
	movq	-32(%rbp), %rdx
	movq	%rdx, %rsi
	movq	%rax, %rdi
	call	_ZSt10__distanceIPKjENSt15iterator_traitsIT_E15difference_typeES3_S3_St26random_access_iterator_tag
	movq	-8(%rbp), %rcx
	xorq	%fs:40, %rcx
	je	.L254
	call	__stack_chk_fail@PLT
.L254:
	leave
	.cfi_def_cfa 7, 8
	ret
	.cfi_endproc
.LFE3848:
	.size	_ZSt8distanceIPKjENSt15iterator_traitsIT_E15difference_typeES3_S3_, .-_ZSt8distanceIPKjENSt15iterator_traitsIT_E15difference_typeES3_S3_
	.section	.rodata
	.align 8
.LC4:
	.string	"cannot create std::vector larger than max_size()"
	.section	.text._ZNSt6vectorIjSaIjEE17_S_check_init_lenEmRKS0_,"axG",@progbits,_ZNSt6vectorIjSaIjEE17_S_check_init_lenEmRKS0_,comdat
	.weak	_ZNSt6vectorIjSaIjEE17_S_check_init_lenEmRKS0_
	.type	_ZNSt6vectorIjSaIjEE17_S_check_init_lenEmRKS0_, @function
_ZNSt6vectorIjSaIjEE17_S_check_init_lenEmRKS0_:
.LFB3849:
	.cfi_startproc
	endbr64
	pushq	%rbp
	.cfi_def_cfa_offset 16
	.cfi_offset 6, -16
	movq	%rsp, %rbp
	.cfi_def_cfa_register 6
	pushq	%rbx
	subq	$40, %rsp
	.cfi_offset 3, -24
	movq	%rdi, -40(%rbp)
	movq	%rsi, -48(%rbp)
	movq	%fs:40, %rax
	movq	%rax, -24(%rbp)
	xorl	%eax, %eax
	movq	-48(%rbp), %rdx
	leaq	-25(%rbp), %rax
	movq	%rdx, %rsi
	movq	%rax, %rdi
	call	_ZNSaIjEC1ERKS_
	leaq	-25(%rbp), %rax
	movq	%rax, %rdi
	call	_ZNSt6vectorIjSaIjEE11_S_max_sizeERKS0_
	cmpq	%rax, -40(%rbp)
	seta	%bl
	leaq	-25(%rbp), %rax
	movq	%rax, %rdi
	call	_ZNSaIjED1Ev
	testb	%bl, %bl
	je	.L256
	leaq	.LC4(%rip), %rdi
	call	_ZSt20__throw_length_errorPKc@PLT
.L256:
	movq	-40(%rbp), %rax
	movq	-24(%rbp), %rcx
	xorq	%fs:40, %rcx
	je	.L258
	call	__stack_chk_fail@PLT
.L258:
	addq	$40, %rsp
	popq	%rbx
	popq	%rbp
	.cfi_def_cfa 7, 8
	ret
	.cfi_endproc
.LFE3849:
	.size	_ZNSt6vectorIjSaIjEE17_S_check_init_lenEmRKS0_, .-_ZNSt6vectorIjSaIjEE17_S_check_init_lenEmRKS0_
	.section	.text._ZNSt6vectorIjSaIjEE20_M_allocate_and_copyIPKjEEPjmT_S6_,"axG",@progbits,_ZNSt6vectorIjSaIjEE20_M_allocate_and_copyIPKjEEPjmT_S6_,comdat
	.align 2
	.weak	_ZNSt6vectorIjSaIjEE20_M_allocate_and_copyIPKjEEPjmT_S6_
	.type	_ZNSt6vectorIjSaIjEE20_M_allocate_and_copyIPKjEEPjmT_S6_, @function
_ZNSt6vectorIjSaIjEE20_M_allocate_and_copyIPKjEEPjmT_S6_:
.LFB3850:
	.cfi_startproc
	.cfi_personality 0x9b,DW.ref.__gxx_personality_v0
	.cfi_lsda 0x1b,.LLSDA3850
	endbr64
	pushq	%rbp
	.cfi_def_cfa_offset 16
	.cfi_offset 6, -16
	movq	%rsp, %rbp
	.cfi_def_cfa_register 6
	pushq	%rbx
	subq	$56, %rsp
	.cfi_offset 3, -24
	movq	%rdi, -40(%rbp)
	movq	%rsi, -48(%rbp)
	movq	%rdx, -56(%rbp)
	movq	%rcx, -64(%rbp)
	movq	-40(%rbp), %rax
	movq	-48(%rbp), %rdx
	movq	%rdx, %rsi
	movq	%rax, %rdi
.LEHB28:
	call	_ZNSt12_Vector_baseIjSaIjEE11_M_allocateEm
.LEHE28:
	movq	%rax, -24(%rbp)
	movq	-40(%rbp), %rax
	movq	%rax, %rdi
	call	_ZNSt12_Vector_baseIjSaIjEE19_M_get_Tp_allocatorEv
	movq	%rax, %rcx
	movq	-24(%rbp), %rdx
	movq	-64(%rbp), %rsi
	movq	-56(%rbp), %rax
	movq	%rax, %rdi
.LEHB29:
	call	_ZSt22__uninitialized_copy_aIPKjPjjET0_T_S4_S3_RSaIT1_E
.LEHE29:
	movq	-24(%rbp), %rax
	jmp	.L265
.L263:
	endbr64
	movq	%rax, %rdi
	call	__cxa_begin_catch@PLT
	movq	-40(%rbp), %rax
	movq	-48(%rbp), %rdx
	movq	-24(%rbp), %rcx
	movq	%rcx, %rsi
	movq	%rax, %rdi
.LEHB30:
	call	_ZNSt12_Vector_baseIjSaIjEE13_M_deallocateEPjm
	call	__cxa_rethrow@PLT
.LEHE30:
.L264:
	endbr64
	movq	%rax, %rbx
	call	__cxa_end_catch@PLT
	movq	%rbx, %rax
	movq	%rax, %rdi
.LEHB31:
	call	_Unwind_Resume@PLT
.LEHE31:
.L265:
	addq	$56, %rsp
	popq	%rbx
	popq	%rbp
	.cfi_def_cfa 7, 8
	ret
	.cfi_endproc
.LFE3850:
	.section	.gcc_except_table
	.align 4
.LLSDA3850:
	.byte	0xff
	.byte	0x9b
	.uleb128 .LLSDATT3850-.LLSDATTD3850
.LLSDATTD3850:
	.byte	0x1
	.uleb128 .LLSDACSE3850-.LLSDACSB3850
.LLSDACSB3850:
	.uleb128 .LEHB28-.LFB3850
	.uleb128 .LEHE28-.LEHB28
	.uleb128 0
	.uleb128 0
	.uleb128 .LEHB29-.LFB3850
	.uleb128 .LEHE29-.LEHB29
	.uleb128 .L263-.LFB3850
	.uleb128 0x1
	.uleb128 .LEHB30-.LFB3850
	.uleb128 .LEHE30-.LEHB30
	.uleb128 .L264-.LFB3850
	.uleb128 0
	.uleb128 .LEHB31-.LFB3850
	.uleb128 .LEHE31-.LEHB31
	.uleb128 0
	.uleb128 0
.LLSDACSE3850:
	.byte	0x1
	.byte	0
	.align 4
	.long	0

.LLSDATT3850:
	.section	.text._ZNSt6vectorIjSaIjEE20_M_allocate_and_copyIPKjEEPjmT_S6_,"axG",@progbits,_ZNSt6vectorIjSaIjEE20_M_allocate_and_copyIPKjEEPjmT_S6_,comdat
	.size	_ZNSt6vectorIjSaIjEE20_M_allocate_and_copyIPKjEEPjmT_S6_, .-_ZNSt6vectorIjSaIjEE20_M_allocate_and_copyIPKjEEPjmT_S6_
	.section	.text._ZNSt6vectorIjSaIjEE15_M_erase_at_endEPj,"axG",@progbits,_ZNSt6vectorIjSaIjEE15_M_erase_at_endEPj,comdat
	.align 2
	.weak	_ZNSt6vectorIjSaIjEE15_M_erase_at_endEPj
	.type	_ZNSt6vectorIjSaIjEE15_M_erase_at_endEPj, @function
_ZNSt6vectorIjSaIjEE15_M_erase_at_endEPj:
.LFB3851:
	.cfi_startproc
	.cfi_personality 0x9b,DW.ref.__gxx_personality_v0
	.cfi_lsda 0x1b,.LLSDA3851
	endbr64
	pushq	%rbp
	.cfi_def_cfa_offset 16
	.cfi_offset 6, -16
	movq	%rsp, %rbp
	.cfi_def_cfa_register 6
	subq	$32, %rsp
	movq	%rdi, -24(%rbp)
	movq	%rsi, -32(%rbp)
	movq	-24(%rbp), %rax
	movq	8(%rax), %rax
	subq	-32(%rbp), %rax
	sarq	$2, %rax
	movq	%rax, -8(%rbp)
	cmpq	$0, -8(%rbp)
	je	.L268
	movq	-24(%rbp), %rax
	movq	%rax, %rdi
	call	_ZNSt12_Vector_baseIjSaIjEE19_M_get_Tp_allocatorEv
	movq	%rax, %rdx
	movq	-24(%rbp), %rax
	movq	8(%rax), %rcx
	movq	-32(%rbp), %rax
	movq	%rcx, %rsi
	movq	%rax, %rdi
	call	_ZSt8_DestroyIPjjEvT_S1_RSaIT0_E
	movq	-24(%rbp), %rax
	movq	-32(%rbp), %rdx
	movq	%rdx, 8(%rax)
.L268:
	nop
	leave
	.cfi_def_cfa 7, 8
	ret
	.cfi_endproc
.LFE3851:
	.section	.gcc_except_table
.LLSDA3851:
	.byte	0xff
	.byte	0xff
	.byte	0x1
	.uleb128 .LLSDACSE3851-.LLSDACSB3851
.LLSDACSB3851:
.LLSDACSE3851:
	.section	.text._ZNSt6vectorIjSaIjEE15_M_erase_at_endEPj,"axG",@progbits,_ZNSt6vectorIjSaIjEE15_M_erase_at_endEPj,comdat
	.size	_ZNSt6vectorIjSaIjEE15_M_erase_at_endEPj, .-_ZNSt6vectorIjSaIjEE15_M_erase_at_endEPj
	.section	.text._ZSt4copyIPKjPjET0_T_S4_S3_,"axG",@progbits,_ZSt4copyIPKjPjET0_T_S4_S3_,comdat
	.weak	_ZSt4copyIPKjPjET0_T_S4_S3_
	.type	_ZSt4copyIPKjPjET0_T_S4_S3_, @function
_ZSt4copyIPKjPjET0_T_S4_S3_:
.LFB3852:
	.cfi_startproc
	endbr64
	pushq	%rbp
	.cfi_def_cfa_offset 16
	.cfi_offset 6, -16
	movq	%rsp, %rbp
	.cfi_def_cfa_register 6
	pushq	%rbx
	subq	$40, %rsp
	.cfi_offset 3, -24
	movq	%rdi, -24(%rbp)
	movq	%rsi, -32(%rbp)
	movq	%rdx, -40(%rbp)
	movq	-32(%rbp), %rax
	movq	%rax, %rdi
	call	_ZSt12__miter_baseIPKjET_S2_
	movq	%rax, %rbx
	movq	-24(%rbp), %rax
	movq	%rax, %rdi
	call	_ZSt12__miter_baseIPKjET_S2_
	movq	%rax, %rcx
	movq	-40(%rbp), %rax
	movq	%rax, %rdx
	movq	%rbx, %rsi
	movq	%rcx, %rdi
	call	_ZSt14__copy_move_a2ILb0EPKjPjET1_T0_S4_S3_
	addq	$40, %rsp
	popq	%rbx
	popq	%rbp
	.cfi_def_cfa 7, 8
	ret
	.cfi_endproc
.LFE3852:
	.size	_ZSt4copyIPKjPjET0_T_S4_S3_, .-_ZSt4copyIPKjPjET0_T_S4_S3_
	.section	.text._ZSt7advanceIPKjmEvRT_T0_,"axG",@progbits,_ZSt7advanceIPKjmEvRT_T0_,comdat
	.weak	_ZSt7advanceIPKjmEvRT_T0_
	.type	_ZSt7advanceIPKjmEvRT_T0_, @function
_ZSt7advanceIPKjmEvRT_T0_:
.LFB3853:
	.cfi_startproc
	endbr64
	pushq	%rbp
	.cfi_def_cfa_offset 16
	.cfi_offset 6, -16
	movq	%rsp, %rbp
	.cfi_def_cfa_register 6
	subq	$48, %rsp
	movq	%rdi, -40(%rbp)
	movq	%rsi, -48(%rbp)
	movq	%fs:40, %rax
	movq	%rax, -8(%rbp)
	xorl	%eax, %eax
	movq	-48(%rbp), %rax
	movq	%rax, -16(%rbp)
	movq	-40(%rbp), %rax
	movq	%rax, %rdi
	call	_ZSt19__iterator_categoryIPKjENSt15iterator_traitsIT_E17iterator_categoryERKS3_
	movq	-16(%rbp), %rdx
	movq	-40(%rbp), %rax
	movq	%rdx, %rsi
	movq	%rax, %rdi
	call	_ZSt9__advanceIPKjlEvRT_T0_St26random_access_iterator_tag
	nop
	movq	-8(%rbp), %rax
	xorq	%fs:40, %rax
	je	.L272
	call	__stack_chk_fail@PLT
.L272:
	leave
	.cfi_def_cfa 7, 8
	ret
	.cfi_endproc
.LFE3853:
	.size	_ZSt7advanceIPKjmEvRT_T0_, .-_ZSt7advanceIPKjmEvRT_T0_
	.section	.text._ZSt22__uninitialized_copy_aIPKjPjjET0_T_S4_S3_RSaIT1_E,"axG",@progbits,_ZSt22__uninitialized_copy_aIPKjPjjET0_T_S4_S3_RSaIT1_E,comdat
	.weak	_ZSt22__uninitialized_copy_aIPKjPjjET0_T_S4_S3_RSaIT1_E
	.type	_ZSt22__uninitialized_copy_aIPKjPjjET0_T_S4_S3_RSaIT1_E, @function
_ZSt22__uninitialized_copy_aIPKjPjjET0_T_S4_S3_RSaIT1_E:
.LFB3854:
	.cfi_startproc
	endbr64
	pushq	%rbp
	.cfi_def_cfa_offset 16
	.cfi_offset 6, -16
	movq	%rsp, %rbp
	.cfi_def_cfa_register 6
	subq	$32, %rsp
	movq	%rdi, -8(%rbp)
	movq	%rsi, -16(%rbp)
	movq	%rdx, -24(%rbp)
	movq	%rcx, -32(%rbp)
	movq	-24(%rbp), %rdx
	movq	-16(%rbp), %rcx
	movq	-8(%rbp), %rax
	movq	%rcx, %rsi
	movq	%rax, %rdi
	call	_ZSt18uninitialized_copyIPKjPjET0_T_S4_S3_
	leave
	.cfi_def_cfa 7, 8
	ret
	.cfi_endproc
.LFE3854:
	.size	_ZSt22__uninitialized_copy_aIPKjPjjET0_T_S4_S3_RSaIT1_E, .-_ZSt22__uninitialized_copy_aIPKjPjjET0_T_S4_S3_RSaIT1_E
	.section	.text._ZN9__gnu_cxx17__normal_iteratorIPKjSt6vectorIjSaIjEEEC2ERKS2_,"axG",@progbits,_ZN9__gnu_cxx17__normal_iteratorIPKjSt6vectorIjSaIjEEEC5ERKS2_,comdat
	.align 2
	.weak	_ZN9__gnu_cxx17__normal_iteratorIPKjSt6vectorIjSaIjEEEC2ERKS2_
	.type	_ZN9__gnu_cxx17__normal_iteratorIPKjSt6vectorIjSaIjEEEC2ERKS2_, @function
_ZN9__gnu_cxx17__normal_iteratorIPKjSt6vectorIjSaIjEEEC2ERKS2_:
.LFB3856:
	.cfi_startproc
	endbr64
	pushq	%rbp
	.cfi_def_cfa_offset 16
	.cfi_offset 6, -16
	movq	%rsp, %rbp
	.cfi_def_cfa_register 6
	movq	%rdi, -8(%rbp)
	movq	%rsi, -16(%rbp)
	movq	-16(%rbp), %rax
	movq	(%rax), %rdx
	movq	-8(%rbp), %rax
	movq	%rdx, (%rax)
	nop
	popq	%rbp
	.cfi_def_cfa 7, 8
	ret
	.cfi_endproc
.LFE3856:
	.size	_ZN9__gnu_cxx17__normal_iteratorIPKjSt6vectorIjSaIjEEEC2ERKS2_, .-_ZN9__gnu_cxx17__normal_iteratorIPKjSt6vectorIjSaIjEEEC2ERKS2_
	.weak	_ZN9__gnu_cxx17__normal_iteratorIPKjSt6vectorIjSaIjEEEC1ERKS2_
	.set	_ZN9__gnu_cxx17__normal_iteratorIPKjSt6vectorIjSaIjEEEC1ERKS2_,_ZN9__gnu_cxx17__normal_iteratorIPKjSt6vectorIjSaIjEEEC2ERKS2_
	.section	.text._ZNK9__gnu_cxx17__normal_iteratorIPKjSt6vectorIjSaIjEEE4baseEv,"axG",@progbits,_ZNK9__gnu_cxx17__normal_iteratorIPKjSt6vectorIjSaIjEEE4baseEv,comdat
	.align 2
	.weak	_ZNK9__gnu_cxx17__normal_iteratorIPKjSt6vectorIjSaIjEEE4baseEv
	.type	_ZNK9__gnu_cxx17__normal_iteratorIPKjSt6vectorIjSaIjEEE4baseEv, @function
_ZNK9__gnu_cxx17__normal_iteratorIPKjSt6vectorIjSaIjEEE4baseEv:
.LFB3858:
	.cfi_startproc
	endbr64
	pushq	%rbp
	.cfi_def_cfa_offset 16
	.cfi_offset 6, -16
	movq	%rsp, %rbp
	.cfi_def_cfa_register 6
	movq	%rdi, -8(%rbp)
	movq	-8(%rbp), %rax
	popq	%rbp
	.cfi_def_cfa 7, 8
	ret
	.cfi_endproc
.LFE3858:
	.size	_ZNK9__gnu_cxx17__normal_iteratorIPKjSt6vectorIjSaIjEEE4baseEv, .-_ZNK9__gnu_cxx17__normal_iteratorIPKjSt6vectorIjSaIjEEE4baseEv
	.section	.text._ZNSt6vectorIjSaIjEE16_Temporary_valueC2IJRKjEEEPS1_DpOT_,"axG",@progbits,_ZNSt6vectorIjSaIjEE16_Temporary_valueC5IJRKjEEEPS1_DpOT_,comdat
	.align 2
	.weak	_ZNSt6vectorIjSaIjEE16_Temporary_valueC2IJRKjEEEPS1_DpOT_
	.type	_ZNSt6vectorIjSaIjEE16_Temporary_valueC2IJRKjEEEPS1_DpOT_, @function
_ZNSt6vectorIjSaIjEE16_Temporary_valueC2IJRKjEEEPS1_DpOT_:
.LFB3860:
	.cfi_startproc
	endbr64
	pushq	%rbp
	.cfi_def_cfa_offset 16
	.cfi_offset 6, -16
	movq	%rsp, %rbp
	.cfi_def_cfa_register 6
	pushq	%rbx
	subq	$40, %rsp
	.cfi_offset 3, -24
	movq	%rdi, -24(%rbp)
	movq	%rsi, -32(%rbp)
	movq	%rdx, -40(%rbp)
	movq	-24(%rbp), %rax
	movq	-32(%rbp), %rdx
	movq	%rdx, (%rax)
	movq	-40(%rbp), %rax
	movq	%rax, %rdi
	call	_ZSt7forwardIRKjEOT_RNSt16remove_referenceIS2_E4typeE
	movq	%rax, %rbx
	movq	-24(%rbp), %rax
	movq	%rax, %rdi
	call	_ZNSt6vectorIjSaIjEE16_Temporary_value6_M_ptrEv
	movq	%rax, %rcx
	movq	-24(%rbp), %rax
	movq	(%rax), %rax
	movq	%rbx, %rdx
	movq	%rcx, %rsi
	movq	%rax, %rdi
	call	_ZNSt16allocator_traitsISaIjEE9constructIjJRKjEEEvRS0_PT_DpOT0_
	nop
	addq	$40, %rsp
	popq	%rbx
	popq	%rbp
	.cfi_def_cfa 7, 8
	ret
	.cfi_endproc
.LFE3860:
	.size	_ZNSt6vectorIjSaIjEE16_Temporary_valueC2IJRKjEEEPS1_DpOT_, .-_ZNSt6vectorIjSaIjEE16_Temporary_valueC2IJRKjEEEPS1_DpOT_
	.weak	_ZNSt6vectorIjSaIjEE16_Temporary_valueC1IJRKjEEEPS1_DpOT_
	.set	_ZNSt6vectorIjSaIjEE16_Temporary_valueC1IJRKjEEEPS1_DpOT_,_ZNSt6vectorIjSaIjEE16_Temporary_valueC2IJRKjEEEPS1_DpOT_
	.section	.text._ZNSt6vectorIjSaIjEE16_Temporary_valueD2Ev,"axG",@progbits,_ZNSt6vectorIjSaIjEE16_Temporary_valueD5Ev,comdat
	.align 2
	.weak	_ZNSt6vectorIjSaIjEE16_Temporary_valueD2Ev
	.type	_ZNSt6vectorIjSaIjEE16_Temporary_valueD2Ev, @function
_ZNSt6vectorIjSaIjEE16_Temporary_valueD2Ev:
.LFB3863:
	.cfi_startproc
	endbr64
	pushq	%rbp
	.cfi_def_cfa_offset 16
	.cfi_offset 6, -16
	movq	%rsp, %rbp
	.cfi_def_cfa_register 6
	subq	$16, %rsp
	movq	%rdi, -8(%rbp)
	movq	-8(%rbp), %rax
	movq	%rax, %rdi
	call	_ZNSt6vectorIjSaIjEE16_Temporary_value6_M_ptrEv
	movq	%rax, %rdx
	movq	-8(%rbp), %rax
	movq	(%rax), %rax
	movq	%rdx, %rsi
	movq	%rax, %rdi
	call	_ZNSt16allocator_traitsISaIjEE7destroyIjEEvRS0_PT_
	nop
	leave
	.cfi_def_cfa 7, 8
	ret
	.cfi_endproc
.LFE3863:
	.size	_ZNSt6vectorIjSaIjEE16_Temporary_valueD2Ev, .-_ZNSt6vectorIjSaIjEE16_Temporary_valueD2Ev
	.weak	_ZNSt6vectorIjSaIjEE16_Temporary_valueD1Ev
	.set	_ZNSt6vectorIjSaIjEE16_Temporary_valueD1Ev,_ZNSt6vectorIjSaIjEE16_Temporary_valueD2Ev
	.section	.text._ZNSt6vectorIjSaIjEE16_Temporary_value6_M_valEv,"axG",@progbits,_ZNSt6vectorIjSaIjEE16_Temporary_value6_M_valEv,comdat
	.align 2
	.weak	_ZNSt6vectorIjSaIjEE16_Temporary_value6_M_valEv
	.type	_ZNSt6vectorIjSaIjEE16_Temporary_value6_M_valEv, @function
_ZNSt6vectorIjSaIjEE16_Temporary_value6_M_valEv:
.LFB3865:
	.cfi_startproc
	endbr64
	pushq	%rbp
	.cfi_def_cfa_offset 16
	.cfi_offset 6, -16
	movq	%rsp, %rbp
	.cfi_def_cfa_register 6
	subq	$16, %rsp
	movq	%rdi, -8(%rbp)
	movq	-8(%rbp), %rax
	movq	%rax, %rdi
	call	_ZNSt6vectorIjSaIjEE16_Temporary_value6_M_ptrEv
	leave
	.cfi_def_cfa 7, 8
	ret
	.cfi_endproc
.LFE3865:
	.size	_ZNSt6vectorIjSaIjEE16_Temporary_value6_M_valEv, .-_ZNSt6vectorIjSaIjEE16_Temporary_value6_M_valEv
	.section	.text._ZN9__gnu_cxxmiIPjSt6vectorIjSaIjEEEENS_17__normal_iteratorIT_T0_E15difference_typeERKS8_SB_,"axG",@progbits,_ZN9__gnu_cxxmiIPjSt6vectorIjSaIjEEEENS_17__normal_iteratorIT_T0_E15difference_typeERKS8_SB_,comdat
	.weak	_ZN9__gnu_cxxmiIPjSt6vectorIjSaIjEEEENS_17__normal_iteratorIT_T0_E15difference_typeERKS8_SB_
	.type	_ZN9__gnu_cxxmiIPjSt6vectorIjSaIjEEEENS_17__normal_iteratorIT_T0_E15difference_typeERKS8_SB_, @function
_ZN9__gnu_cxxmiIPjSt6vectorIjSaIjEEEENS_17__normal_iteratorIT_T0_E15difference_typeERKS8_SB_:
.LFB3866:
	.cfi_startproc
	endbr64
	pushq	%rbp
	.cfi_def_cfa_offset 16
	.cfi_offset 6, -16
	movq	%rsp, %rbp
	.cfi_def_cfa_register 6
	pushq	%rbx
	subq	$24, %rsp
	.cfi_offset 3, -24
	movq	%rdi, -24(%rbp)
	movq	%rsi, -32(%rbp)
	movq	-24(%rbp), %rax
	movq	%rax, %rdi
	call	_ZNK9__gnu_cxx17__normal_iteratorIPjSt6vectorIjSaIjEEE4baseEv
	movq	(%rax), %rbx
	movq	-32(%rbp), %rax
	movq	%rax, %rdi
	call	_ZNK9__gnu_cxx17__normal_iteratorIPjSt6vectorIjSaIjEEE4baseEv
	movq	(%rax), %rax
	subq	%rax, %rbx
	movq	%rbx, %rax
	sarq	$2, %rax
	addq	$24, %rsp
	popq	%rbx
	popq	%rbp
	.cfi_def_cfa 7, 8
	ret
	.cfi_endproc
.LFE3866:
	.size	_ZN9__gnu_cxxmiIPjSt6vectorIjSaIjEEEENS_17__normal_iteratorIT_T0_E15difference_typeERKS8_SB_, .-_ZN9__gnu_cxxmiIPjSt6vectorIjSaIjEEEENS_17__normal_iteratorIT_T0_E15difference_typeERKS8_SB_
	.section	.text._ZSt22__uninitialized_move_aIPjS0_SaIjEET0_T_S3_S2_RT1_,"axG",@progbits,_ZSt22__uninitialized_move_aIPjS0_SaIjEET0_T_S3_S2_RT1_,comdat
	.weak	_ZSt22__uninitialized_move_aIPjS0_SaIjEET0_T_S3_S2_RT1_
	.type	_ZSt22__uninitialized_move_aIPjS0_SaIjEET0_T_S3_S2_RT1_, @function
_ZSt22__uninitialized_move_aIPjS0_SaIjEET0_T_S3_S2_RT1_:
.LFB3867:
	.cfi_startproc
	endbr64
	pushq	%rbp
	.cfi_def_cfa_offset 16
	.cfi_offset 6, -16
	movq	%rsp, %rbp
	.cfi_def_cfa_register 6
	pushq	%rbx
	subq	$40, %rsp
	.cfi_offset 3, -24
	movq	%rdi, -24(%rbp)
	movq	%rsi, -32(%rbp)
	movq	%rdx, -40(%rbp)
	movq	%rcx, -48(%rbp)
	movq	-32(%rbp), %rax
	movq	%rax, %rdi
	call	_ZSt18make_move_iteratorIPjESt13move_iteratorIT_ES2_
	movq	%rax, %rbx
	movq	-24(%rbp), %rax
	movq	%rax, %rdi
	call	_ZSt18make_move_iteratorIPjESt13move_iteratorIT_ES2_
	movq	%rax, %rdi
	movq	-48(%rbp), %rdx
	movq	-40(%rbp), %rax
	movq	%rdx, %rcx
	movq	%rax, %rdx
	movq	%rbx, %rsi
	call	_ZSt22__uninitialized_copy_aISt13move_iteratorIPjES1_jET0_T_S4_S3_RSaIT1_E
	addq	$40, %rsp
	popq	%rbx
	popq	%rbp
	.cfi_def_cfa 7, 8
	ret
	.cfi_endproc
.LFE3867:
	.size	_ZSt22__uninitialized_move_aIPjS0_SaIjEET0_T_S3_S2_RT1_, .-_ZSt22__uninitialized_move_aIPjS0_SaIjEET0_T_S3_S2_RT1_
	.section	.text._ZSt13move_backwardIPjS0_ET0_T_S2_S1_,"axG",@progbits,_ZSt13move_backwardIPjS0_ET0_T_S2_S1_,comdat
	.weak	_ZSt13move_backwardIPjS0_ET0_T_S2_S1_
	.type	_ZSt13move_backwardIPjS0_ET0_T_S2_S1_, @function
_ZSt13move_backwardIPjS0_ET0_T_S2_S1_:
.LFB3868:
	.cfi_startproc
	endbr64
	pushq	%rbp
	.cfi_def_cfa_offset 16
	.cfi_offset 6, -16
	movq	%rsp, %rbp
	.cfi_def_cfa_register 6
	pushq	%rbx
	subq	$40, %rsp
	.cfi_offset 3, -24
	movq	%rdi, -24(%rbp)
	movq	%rsi, -32(%rbp)
	movq	%rdx, -40(%rbp)
	movq	-32(%rbp), %rax
	movq	%rax, %rdi
	call	_ZSt12__miter_baseIPjET_S1_
	movq	%rax, %rbx
	movq	-24(%rbp), %rax
	movq	%rax, %rdi
	call	_ZSt12__miter_baseIPjET_S1_
	movq	%rax, %rcx
	movq	-40(%rbp), %rax
	movq	%rax, %rdx
	movq	%rbx, %rsi
	movq	%rcx, %rdi
	call	_ZSt23__copy_move_backward_a2ILb1EPjS0_ET1_T0_S2_S1_
	addq	$40, %rsp
	popq	%rbx
	popq	%rbp
	.cfi_def_cfa 7, 8
	ret
	.cfi_endproc
.LFE3868:
	.size	_ZSt13move_backwardIPjS0_ET0_T_S2_S1_, .-_ZSt13move_backwardIPjS0_ET0_T_S2_S1_
	.section	.text._ZSt4fillIPjjEvT_S1_RKT0_,"axG",@progbits,_ZSt4fillIPjjEvT_S1_RKT0_,comdat
	.weak	_ZSt4fillIPjjEvT_S1_RKT0_
	.type	_ZSt4fillIPjjEvT_S1_RKT0_, @function
_ZSt4fillIPjjEvT_S1_RKT0_:
.LFB3869:
	.cfi_startproc
	endbr64
	pushq	%rbp
	.cfi_def_cfa_offset 16
	.cfi_offset 6, -16
	movq	%rsp, %rbp
	.cfi_def_cfa_register 6
	pushq	%rbx
	subq	$40, %rsp
	.cfi_offset 3, -24
	movq	%rdi, -24(%rbp)
	movq	%rsi, -32(%rbp)
	movq	%rdx, -40(%rbp)
	movq	-32(%rbp), %rax
	movq	%rax, %rdi
	call	_ZSt12__niter_baseIPjET_S1_
	movq	%rax, %rbx
	movq	-24(%rbp), %rax
	movq	%rax, %rdi
	call	_ZSt12__niter_baseIPjET_S1_
	movq	%rax, %rcx
	movq	-40(%rbp), %rax
	movq	%rax, %rdx
	movq	%rbx, %rsi
	movq	%rcx, %rdi
	call	_ZSt8__fill_aIPjjEN9__gnu_cxx11__enable_ifIXsrSt11__is_scalarIT0_E7__valueEvE6__typeET_S8_RKS4_
	nop
	addq	$40, %rsp
	popq	%rbx
	popq	%rbp
	.cfi_def_cfa 7, 8
	ret
	.cfi_endproc
.LFE3869:
	.size	_ZSt4fillIPjjEvT_S1_RKT0_, .-_ZSt4fillIPjjEvT_S1_RKT0_
	.section	.text._ZSt24__uninitialized_fill_n_aIPjmjjET_S1_T0_RKT1_RSaIT2_E,"axG",@progbits,_ZSt24__uninitialized_fill_n_aIPjmjjET_S1_T0_RKT1_RSaIT2_E,comdat
	.weak	_ZSt24__uninitialized_fill_n_aIPjmjjET_S1_T0_RKT1_RSaIT2_E
	.type	_ZSt24__uninitialized_fill_n_aIPjmjjET_S1_T0_RKT1_RSaIT2_E, @function
_ZSt24__uninitialized_fill_n_aIPjmjjET_S1_T0_RKT1_RSaIT2_E:
.LFB3870:
	.cfi_startproc
	endbr64
	pushq	%rbp
	.cfi_def_cfa_offset 16
	.cfi_offset 6, -16
	movq	%rsp, %rbp
	.cfi_def_cfa_register 6
	subq	$32, %rsp
	movq	%rdi, -8(%rbp)
	movq	%rsi, -16(%rbp)
	movq	%rdx, -24(%rbp)
	movq	%rcx, -32(%rbp)
	movq	-24(%rbp), %rdx
	movq	-16(%rbp), %rcx
	movq	-8(%rbp), %rax
	movq	%rcx, %rsi
	movq	%rax, %rdi
	call	_ZSt20uninitialized_fill_nIPjmjET_S1_T0_RKT1_
	leave
	.cfi_def_cfa 7, 8
	ret
	.cfi_endproc
.LFE3870:
	.size	_ZSt24__uninitialized_fill_n_aIPjmjjET_S1_T0_RKT1_RSaIT2_E, .-_ZSt24__uninitialized_fill_n_aIPjmjjET_S1_T0_RKT1_RSaIT2_E
	.section	.text._ZNKSt6vectorIjSaIjEE12_M_check_lenEmPKc,"axG",@progbits,_ZNKSt6vectorIjSaIjEE12_M_check_lenEmPKc,comdat
	.align 2
	.weak	_ZNKSt6vectorIjSaIjEE12_M_check_lenEmPKc
	.type	_ZNKSt6vectorIjSaIjEE12_M_check_lenEmPKc, @function
_ZNKSt6vectorIjSaIjEE12_M_check_lenEmPKc:
.LFB3871:
	.cfi_startproc
	endbr64
	pushq	%rbp
	.cfi_def_cfa_offset 16
	.cfi_offset 6, -16
	movq	%rsp, %rbp
	.cfi_def_cfa_register 6
	pushq	%rbx
	subq	$72, %rsp
	.cfi_offset 3, -24
	movq	%rdi, -56(%rbp)
	movq	%rsi, -64(%rbp)
	movq	%rdx, -72(%rbp)
	movq	%fs:40, %rax
	movq	%rax, -24(%rbp)
	xorl	%eax, %eax
	movq	-56(%rbp), %rax
	movq	%rax, %rdi
	call	_ZNKSt6vectorIjSaIjEE8max_sizeEv
	movq	%rax, %rbx
	movq	-56(%rbp), %rax
	movq	%rax, %rdi
	call	_ZNKSt6vectorIjSaIjEE4sizeEv
	subq	%rax, %rbx
	movq	%rbx, %rdx
	movq	-64(%rbp), %rax
	cmpq	%rax, %rdx
	setb	%al
	testb	%al, %al
	je	.L292
	movq	-72(%rbp), %rax
	movq	%rax, %rdi
	call	_ZSt20__throw_length_errorPKc@PLT
.L292:
	movq	-56(%rbp), %rax
	movq	%rax, %rdi
	call	_ZNKSt6vectorIjSaIjEE4sizeEv
	movq	%rax, %rbx
	movq	-56(%rbp), %rax
	movq	%rax, %rdi
	call	_ZNKSt6vectorIjSaIjEE4sizeEv
	movq	%rax, -40(%rbp)
	leaq	-64(%rbp), %rdx
	leaq	-40(%rbp), %rax
	movq	%rdx, %rsi
	movq	%rax, %rdi
	call	_ZSt3maxImERKT_S2_S2_
	movq	(%rax), %rax
	addq	%rbx, %rax
	movq	%rax, -32(%rbp)
	movq	-56(%rbp), %rax
	movq	%rax, %rdi
	call	_ZNKSt6vectorIjSaIjEE4sizeEv
	cmpq	%rax, -32(%rbp)
	jb	.L293
	movq	-56(%rbp), %rax
	movq	%rax, %rdi
	call	_ZNKSt6vectorIjSaIjEE8max_sizeEv
	cmpq	%rax, -32(%rbp)
	jbe	.L294
.L293:
	movq	-56(%rbp), %rax
	movq	%rax, %rdi
	call	_ZNKSt6vectorIjSaIjEE8max_sizeEv
	jmp	.L295
.L294:
	movq	-32(%rbp), %rax
.L295:
	movq	-24(%rbp), %rcx
	xorq	%fs:40, %rcx
	je	.L297
	call	__stack_chk_fail@PLT
.L297:
	addq	$72, %rsp
	popq	%rbx
	popq	%rbp
	.cfi_def_cfa 7, 8
	ret
	.cfi_endproc
.LFE3871:
	.size	_ZNKSt6vectorIjSaIjEE12_M_check_lenEmPKc, .-_ZNKSt6vectorIjSaIjEE12_M_check_lenEmPKc
	.section	.text._ZNSt12_Vector_baseIjSaIjEE11_M_allocateEm,"axG",@progbits,_ZNSt12_Vector_baseIjSaIjEE11_M_allocateEm,comdat
	.align 2
	.weak	_ZNSt12_Vector_baseIjSaIjEE11_M_allocateEm
	.type	_ZNSt12_Vector_baseIjSaIjEE11_M_allocateEm, @function
_ZNSt12_Vector_baseIjSaIjEE11_M_allocateEm:
.LFB3872:
	.cfi_startproc
	endbr64
	pushq	%rbp
	.cfi_def_cfa_offset 16
	.cfi_offset 6, -16
	movq	%rsp, %rbp
	.cfi_def_cfa_register 6
	subq	$16, %rsp
	movq	%rdi, -8(%rbp)
	movq	%rsi, -16(%rbp)
	cmpq	$0, -16(%rbp)
	je	.L299
	movq	-8(%rbp), %rax
	movq	-16(%rbp), %rdx
	movq	%rdx, %rsi
	movq	%rax, %rdi
	call	_ZNSt16allocator_traitsISaIjEE8allocateERS0_m
	jmp	.L301
.L299:
	movl	$0, %eax
.L301:
	leave
	.cfi_def_cfa 7, 8
	ret
	.cfi_endproc
.LFE3872:
	.size	_ZNSt12_Vector_baseIjSaIjEE11_M_allocateEm, .-_ZNSt12_Vector_baseIjSaIjEE11_M_allocateEm
	.section	.text._ZSt34__uninitialized_move_if_noexcept_aIPjS0_SaIjEET0_T_S3_S2_RT1_,"axG",@progbits,_ZSt34__uninitialized_move_if_noexcept_aIPjS0_SaIjEET0_T_S3_S2_RT1_,comdat
	.weak	_ZSt34__uninitialized_move_if_noexcept_aIPjS0_SaIjEET0_T_S3_S2_RT1_
	.type	_ZSt34__uninitialized_move_if_noexcept_aIPjS0_SaIjEET0_T_S3_S2_RT1_, @function
_ZSt34__uninitialized_move_if_noexcept_aIPjS0_SaIjEET0_T_S3_S2_RT1_:
.LFB3873:
	.cfi_startproc
	endbr64
	pushq	%rbp
	.cfi_def_cfa_offset 16
	.cfi_offset 6, -16
	movq	%rsp, %rbp
	.cfi_def_cfa_register 6
	pushq	%rbx
	subq	$40, %rsp
	.cfi_offset 3, -24
	movq	%rdi, -24(%rbp)
	movq	%rsi, -32(%rbp)
	movq	%rdx, -40(%rbp)
	movq	%rcx, -48(%rbp)
	movq	-32(%rbp), %rax
	movq	%rax, %rdi
	call	_ZSt32__make_move_if_noexcept_iteratorIjSt13move_iteratorIPjEET0_PT_
	movq	%rax, %rbx
	movq	-24(%rbp), %rax
	movq	%rax, %rdi
	call	_ZSt32__make_move_if_noexcept_iteratorIjSt13move_iteratorIPjEET0_PT_
	movq	%rax, %rdi
	movq	-48(%rbp), %rdx
	movq	-40(%rbp), %rax
	movq	%rdx, %rcx
	movq	%rax, %rdx
	movq	%rbx, %rsi
	call	_ZSt22__uninitialized_copy_aISt13move_iteratorIPjES1_jET0_T_S4_S3_RSaIT1_E
	addq	$40, %rsp
	popq	%rbx
	popq	%rbp
	.cfi_def_cfa 7, 8
	ret
	.cfi_endproc
.LFE3873:
	.size	_ZSt34__uninitialized_move_if_noexcept_aIPjS0_SaIjEET0_T_S3_S2_RT1_, .-_ZSt34__uninitialized_move_if_noexcept_aIPjS0_SaIjEET0_T_S3_S2_RT1_
	.section	.text._ZN9__gnu_cxx13new_allocatorIjEC2ERKS1_,"axG",@progbits,_ZN9__gnu_cxx13new_allocatorIjEC5ERKS1_,comdat
	.align 2
	.weak	_ZN9__gnu_cxx13new_allocatorIjEC2ERKS1_
	.type	_ZN9__gnu_cxx13new_allocatorIjEC2ERKS1_, @function
_ZN9__gnu_cxx13new_allocatorIjEC2ERKS1_:
.LFB3875:
	.cfi_startproc
	endbr64
	pushq	%rbp
	.cfi_def_cfa_offset 16
	.cfi_offset 6, -16
	movq	%rsp, %rbp
	.cfi_def_cfa_register 6
	movq	%rdi, -8(%rbp)
	movq	%rsi, -16(%rbp)
	nop
	popq	%rbp
	.cfi_def_cfa 7, 8
	ret
	.cfi_endproc
.LFE3875:
	.size	_ZN9__gnu_cxx13new_allocatorIjEC2ERKS1_, .-_ZN9__gnu_cxx13new_allocatorIjEC2ERKS1_
	.weak	_ZN9__gnu_cxx13new_allocatorIjEC1ERKS1_
	.set	_ZN9__gnu_cxx13new_allocatorIjEC1ERKS1_,_ZN9__gnu_cxx13new_allocatorIjEC2ERKS1_
	.section	.text._ZSt18__do_alloc_on_copyISaIjEEvRT_RKS1_St17integral_constantIbLb0EE,"axG",@progbits,_ZSt18__do_alloc_on_copyISaIjEEvRT_RKS1_St17integral_constantIbLb0EE,comdat
	.weak	_ZSt18__do_alloc_on_copyISaIjEEvRT_RKS1_St17integral_constantIbLb0EE
	.type	_ZSt18__do_alloc_on_copyISaIjEEvRT_RKS1_St17integral_constantIbLb0EE, @function
_ZSt18__do_alloc_on_copyISaIjEEvRT_RKS1_St17integral_constantIbLb0EE:
.LFB3877:
	.cfi_startproc
	endbr64
	pushq	%rbp
	.cfi_def_cfa_offset 16
	.cfi_offset 6, -16
	movq	%rsp, %rbp
	.cfi_def_cfa_register 6
	movq	%rdi, -8(%rbp)
	movq	%rsi, -16(%rbp)
	nop
	popq	%rbp
	.cfi_def_cfa 7, 8
	ret
	.cfi_endproc
.LFE3877:
	.size	_ZSt18__do_alloc_on_copyISaIjEEvRT_RKS1_St17integral_constantIbLb0EE, .-_ZSt18__do_alloc_on_copyISaIjEEvRT_RKS1_St17integral_constantIbLb0EE
	.section	.text._ZSt22__uninitialized_copy_aIN9__gnu_cxx17__normal_iteratorIPKjSt6vectorIjSaIjEEEEPjjET0_T_SA_S9_RSaIT1_E,"axG",@progbits,_ZSt22__uninitialized_copy_aIN9__gnu_cxx17__normal_iteratorIPKjSt6vectorIjSaIjEEEEPjjET0_T_SA_S9_RSaIT1_E,comdat
	.weak	_ZSt22__uninitialized_copy_aIN9__gnu_cxx17__normal_iteratorIPKjSt6vectorIjSaIjEEEEPjjET0_T_SA_S9_RSaIT1_E
	.type	_ZSt22__uninitialized_copy_aIN9__gnu_cxx17__normal_iteratorIPKjSt6vectorIjSaIjEEEEPjjET0_T_SA_S9_RSaIT1_E, @function
_ZSt22__uninitialized_copy_aIN9__gnu_cxx17__normal_iteratorIPKjSt6vectorIjSaIjEEEEPjjET0_T_SA_S9_RSaIT1_E:
.LFB3878:
	.cfi_startproc
	endbr64
	pushq	%rbp
	.cfi_def_cfa_offset 16
	.cfi_offset 6, -16
	movq	%rsp, %rbp
	.cfi_def_cfa_register 6
	subq	$32, %rsp
	movq	%rdi, -8(%rbp)
	movq	%rsi, -16(%rbp)
	movq	%rdx, -24(%rbp)
	movq	%rcx, -32(%rbp)
	movq	-24(%rbp), %rdx
	movq	-16(%rbp), %rcx
	movq	-8(%rbp), %rax
	movq	%rcx, %rsi
	movq	%rax, %rdi
	call	_ZSt18uninitialized_copyIN9__gnu_cxx17__normal_iteratorIPKjSt6vectorIjSaIjEEEEPjET0_T_SA_S9_
	leave
	.cfi_def_cfa 7, 8
	ret
	.cfi_endproc
.LFE3878:
	.size	_ZSt22__uninitialized_copy_aIN9__gnu_cxx17__normal_iteratorIPKjSt6vectorIjSaIjEEEEPjjET0_T_SA_S9_RSaIT1_E, .-_ZSt22__uninitialized_copy_aIN9__gnu_cxx17__normal_iteratorIPKjSt6vectorIjSaIjEEEEPjjET0_T_SA_S9_RSaIT1_E
	.section	.text._ZSt12__miter_baseIN9__gnu_cxx17__normal_iteratorIPKjSt6vectorIjSaIjEEEEET_S8_,"axG",@progbits,_ZSt12__miter_baseIN9__gnu_cxx17__normal_iteratorIPKjSt6vectorIjSaIjEEEEET_S8_,comdat
	.weak	_ZSt12__miter_baseIN9__gnu_cxx17__normal_iteratorIPKjSt6vectorIjSaIjEEEEET_S8_
	.type	_ZSt12__miter_baseIN9__gnu_cxx17__normal_iteratorIPKjSt6vectorIjSaIjEEEEET_S8_, @function
_ZSt12__miter_baseIN9__gnu_cxx17__normal_iteratorIPKjSt6vectorIjSaIjEEEEET_S8_:
.LFB3879:
	.cfi_startproc
	endbr64
	pushq	%rbp
	.cfi_def_cfa_offset 16
	.cfi_offset 6, -16
	movq	%rsp, %rbp
	.cfi_def_cfa_register 6
	movq	%rdi, -8(%rbp)
	movq	-8(%rbp), %rax
	popq	%rbp
	.cfi_def_cfa 7, 8
	ret
	.cfi_endproc
.LFE3879:
	.size	_ZSt12__miter_baseIN9__gnu_cxx17__normal_iteratorIPKjSt6vectorIjSaIjEEEEET_S8_, .-_ZSt12__miter_baseIN9__gnu_cxx17__normal_iteratorIPKjSt6vectorIjSaIjEEEEET_S8_
	.section	.text._ZSt14__copy_move_a2ILb0EN9__gnu_cxx17__normal_iteratorIPKjSt6vectorIjSaIjEEEENS1_IPjS6_EEET1_T0_SB_SA_,"axG",@progbits,_ZSt14__copy_move_a2ILb0EN9__gnu_cxx17__normal_iteratorIPKjSt6vectorIjSaIjEEEENS1_IPjS6_EEET1_T0_SB_SA_,comdat
	.weak	_ZSt14__copy_move_a2ILb0EN9__gnu_cxx17__normal_iteratorIPKjSt6vectorIjSaIjEEEENS1_IPjS6_EEET1_T0_SB_SA_
	.type	_ZSt14__copy_move_a2ILb0EN9__gnu_cxx17__normal_iteratorIPKjSt6vectorIjSaIjEEEENS1_IPjS6_EEET1_T0_SB_SA_, @function
_ZSt14__copy_move_a2ILb0EN9__gnu_cxx17__normal_iteratorIPKjSt6vectorIjSaIjEEEENS1_IPjS6_EEET1_T0_SB_SA_:
.LFB3880:
	.cfi_startproc
	endbr64
	pushq	%rbp
	.cfi_def_cfa_offset 16
	.cfi_offset 6, -16
	movq	%rsp, %rbp
	.cfi_def_cfa_register 6
	pushq	%r12
	pushq	%rbx
	subq	$32, %rsp
	.cfi_offset 12, -24
	.cfi_offset 3, -32
	movq	%rdi, -24(%rbp)
	movq	%rsi, -32(%rbp)
	movq	%rdx, -40(%rbp)
	movq	-40(%rbp), %rax
	movq	%rax, %rdi
	call	_ZSt12__niter_baseIPjSt6vectorIjSaIjEEET_N9__gnu_cxx17__normal_iteratorIS4_T0_EE
	movq	%rax, %r12
	movq	-32(%rbp), %rax
	movq	%rax, %rdi
	call	_ZSt12__niter_baseIPKjSt6vectorIjSaIjEEET_N9__gnu_cxx17__normal_iteratorIS5_T0_EE
	movq	%rax, %rbx
	movq	-24(%rbp), %rax
	movq	%rax, %rdi
	call	_ZSt12__niter_baseIPKjSt6vectorIjSaIjEEET_N9__gnu_cxx17__normal_iteratorIS5_T0_EE
	movq	%r12, %rdx
	movq	%rbx, %rsi
	movq	%rax, %rdi
	call	_ZSt13__copy_move_aILb0EPKjPjET1_T0_S4_S3_
	movq	%rax, %rdx
	movq	-40(%rbp), %rax
	movq	%rdx, %rsi
	movq	%rax, %rdi
	call	_ZSt12__niter_wrapIN9__gnu_cxx17__normal_iteratorIPjSt6vectorIjSaIjEEEES2_ET_S7_T0_
	addq	$32, %rsp
	popq	%rbx
	popq	%r12
	popq	%rbp
	.cfi_def_cfa 7, 8
	ret
	.cfi_endproc
.LFE3880:
	.size	_ZSt14__copy_move_a2ILb0EN9__gnu_cxx17__normal_iteratorIPKjSt6vectorIjSaIjEEEENS1_IPjS6_EEET1_T0_SB_SA_, .-_ZSt14__copy_move_a2ILb0EN9__gnu_cxx17__normal_iteratorIPKjSt6vectorIjSaIjEEEENS1_IPjS6_EEET1_T0_SB_SA_
	.section	.text._ZSt8_DestroyIN9__gnu_cxx17__normal_iteratorIPjSt6vectorIjSaIjEEEEEvT_S7_,"axG",@progbits,_ZSt8_DestroyIN9__gnu_cxx17__normal_iteratorIPjSt6vectorIjSaIjEEEEEvT_S7_,comdat
	.weak	_ZSt8_DestroyIN9__gnu_cxx17__normal_iteratorIPjSt6vectorIjSaIjEEEEEvT_S7_
	.type	_ZSt8_DestroyIN9__gnu_cxx17__normal_iteratorIPjSt6vectorIjSaIjEEEEEvT_S7_, @function
_ZSt8_DestroyIN9__gnu_cxx17__normal_iteratorIPjSt6vectorIjSaIjEEEEEvT_S7_:
.LFB3881:
	.cfi_startproc
	endbr64
	pushq	%rbp
	.cfi_def_cfa_offset 16
	.cfi_offset 6, -16
	movq	%rsp, %rbp
	.cfi_def_cfa_register 6
	subq	$16, %rsp
	movq	%rdi, -8(%rbp)
	movq	%rsi, -16(%rbp)
	movq	-16(%rbp), %rdx
	movq	-8(%rbp), %rax
	movq	%rdx, %rsi
	movq	%rax, %rdi
	call	_ZNSt12_Destroy_auxILb1EE9__destroyIN9__gnu_cxx17__normal_iteratorIPjSt6vectorIjSaIjEEEEEEvT_S9_
	nop
	leave
	.cfi_def_cfa 7, 8
	ret
	.cfi_endproc
.LFE3881:
	.size	_ZSt8_DestroyIN9__gnu_cxx17__normal_iteratorIPjSt6vectorIjSaIjEEEEEvT_S7_, .-_ZSt8_DestroyIN9__gnu_cxx17__normal_iteratorIPjSt6vectorIjSaIjEEEEEvT_S7_
	.section	.text._ZSt12__miter_baseIPjET_S1_,"axG",@progbits,_ZSt12__miter_baseIPjET_S1_,comdat
	.weak	_ZSt12__miter_baseIPjET_S1_
	.type	_ZSt12__miter_baseIPjET_S1_, @function
_ZSt12__miter_baseIPjET_S1_:
.LFB3882:
	.cfi_startproc
	endbr64
	pushq	%rbp
	.cfi_def_cfa_offset 16
	.cfi_offset 6, -16
	movq	%rsp, %rbp
	.cfi_def_cfa_register 6
	movq	%rdi, -8(%rbp)
	movq	-8(%rbp), %rax
	popq	%rbp
	.cfi_def_cfa 7, 8
	ret
	.cfi_endproc
.LFE3882:
	.size	_ZSt12__miter_baseIPjET_S1_, .-_ZSt12__miter_baseIPjET_S1_
	.section	.text._ZSt14__copy_move_a2ILb0EPjS0_ET1_T0_S2_S1_,"axG",@progbits,_ZSt14__copy_move_a2ILb0EPjS0_ET1_T0_S2_S1_,comdat
	.weak	_ZSt14__copy_move_a2ILb0EPjS0_ET1_T0_S2_S1_
	.type	_ZSt14__copy_move_a2ILb0EPjS0_ET1_T0_S2_S1_, @function
_ZSt14__copy_move_a2ILb0EPjS0_ET1_T0_S2_S1_:
.LFB3883:
	.cfi_startproc
	endbr64
	pushq	%rbp
	.cfi_def_cfa_offset 16
	.cfi_offset 6, -16
	movq	%rsp, %rbp
	.cfi_def_cfa_register 6
	pushq	%r12
	pushq	%rbx
	subq	$32, %rsp
	.cfi_offset 12, -24
	.cfi_offset 3, -32
	movq	%rdi, -24(%rbp)
	movq	%rsi, -32(%rbp)
	movq	%rdx, -40(%rbp)
	movq	-40(%rbp), %rax
	movq	%rax, %rdi
	call	_ZSt12__niter_baseIPjET_S1_
	movq	%rax, %r12
	movq	-32(%rbp), %rax
	movq	%rax, %rdi
	call	_ZSt12__niter_baseIPjET_S1_
	movq	%rax, %rbx
	movq	-24(%rbp), %rax
	movq	%rax, %rdi
	call	_ZSt12__niter_baseIPjET_S1_
	movq	%r12, %rdx
	movq	%rbx, %rsi
	movq	%rax, %rdi
	call	_ZSt13__copy_move_aILb0EPjS0_ET1_T0_S2_S1_
	movq	%rax, %rdx
	leaq	-40(%rbp), %rax
	movq	%rdx, %rsi
	movq	%rax, %rdi
	call	_ZSt12__niter_wrapIPjET_RKS1_S1_
	addq	$32, %rsp
	popq	%rbx
	popq	%r12
	popq	%rbp
	.cfi_def_cfa 7, 8
	ret
	.cfi_endproc
.LFE3883:
	.size	_ZSt14__copy_move_a2ILb0EPjS0_ET1_T0_S2_S1_, .-_ZSt14__copy_move_a2ILb0EPjS0_ET1_T0_S2_S1_
	.section	.text._ZSt18uninitialized_copyIPjS0_ET0_T_S2_S1_,"axG",@progbits,_ZSt18uninitialized_copyIPjS0_ET0_T_S2_S1_,comdat
	.weak	_ZSt18uninitialized_copyIPjS0_ET0_T_S2_S1_
	.type	_ZSt18uninitialized_copyIPjS0_ET0_T_S2_S1_, @function
_ZSt18uninitialized_copyIPjS0_ET0_T_S2_S1_:
.LFB3884:
	.cfi_startproc
	endbr64
	pushq	%rbp
	.cfi_def_cfa_offset 16
	.cfi_offset 6, -16
	movq	%rsp, %rbp
	.cfi_def_cfa_register 6
	subq	$48, %rsp
	movq	%rdi, -24(%rbp)
	movq	%rsi, -32(%rbp)
	movq	%rdx, -40(%rbp)
	movb	$1, -1(%rbp)
	movq	-40(%rbp), %rdx
	movq	-32(%rbp), %rcx
	movq	-24(%rbp), %rax
	movq	%rcx, %rsi
	movq	%rax, %rdi
	call	_ZNSt20__uninitialized_copyILb1EE13__uninit_copyIPjS2_EET0_T_S4_S3_
	leave
	.cfi_def_cfa 7, 8
	ret
	.cfi_endproc
.LFE3884:
	.size	_ZSt18uninitialized_copyIPjS0_ET0_T_S2_S1_, .-_ZSt18uninitialized_copyIPjS0_ET0_T_S2_S1_
	.section	.text._ZNSt12_Vector_baseIjSaIjEE12_Vector_implC2ERKS0_,"axG",@progbits,_ZNSt12_Vector_baseIjSaIjEE12_Vector_implC5ERKS0_,comdat
	.align 2
	.weak	_ZNSt12_Vector_baseIjSaIjEE12_Vector_implC2ERKS0_
	.type	_ZNSt12_Vector_baseIjSaIjEE12_Vector_implC2ERKS0_, @function
_ZNSt12_Vector_baseIjSaIjEE12_Vector_implC2ERKS0_:
.LFB3886:
	.cfi_startproc
	endbr64
	pushq	%rbp
	.cfi_def_cfa_offset 16
	.cfi_offset 6, -16
	movq	%rsp, %rbp
	.cfi_def_cfa_register 6
	subq	$16, %rsp
	movq	%rdi, -8(%rbp)
	movq	%rsi, -16(%rbp)
	movq	-16(%rbp), %rdx
	movq	-8(%rbp), %rax
	movq	%rdx, %rsi
	movq	%rax, %rdi
	call	_ZNSaIjEC2ERKS_
	movq	-8(%rbp), %rax
	movq	%rax, %rdi
	call	_ZNSt12_Vector_baseIjSaIjEE17_Vector_impl_dataC2Ev
	nop
	leave
	.cfi_def_cfa 7, 8
	ret
	.cfi_endproc
.LFE3886:
	.size	_ZNSt12_Vector_baseIjSaIjEE12_Vector_implC2ERKS0_, .-_ZNSt12_Vector_baseIjSaIjEE12_Vector_implC2ERKS0_
	.weak	_ZNSt12_Vector_baseIjSaIjEE12_Vector_implC1ERKS0_
	.set	_ZNSt12_Vector_baseIjSaIjEE12_Vector_implC1ERKS0_,_ZNSt12_Vector_baseIjSaIjEE12_Vector_implC2ERKS0_
	.section	.text._ZNKSt12_Vector_baseIjSaIjEE13get_allocatorEv,"axG",@progbits,_ZNKSt12_Vector_baseIjSaIjEE13get_allocatorEv,comdat
	.align 2
	.weak	_ZNKSt12_Vector_baseIjSaIjEE13get_allocatorEv
	.type	_ZNKSt12_Vector_baseIjSaIjEE13get_allocatorEv, @function
_ZNKSt12_Vector_baseIjSaIjEE13get_allocatorEv:
.LFB3888:
	.cfi_startproc
	endbr64
	pushq	%rbp
	.cfi_def_cfa_offset 16
	.cfi_offset 6, -16
	movq	%rsp, %rbp
	.cfi_def_cfa_register 6
	subq	$16, %rsp
	movq	%rdi, -8(%rbp)
	movq	%rsi, -16(%rbp)
	movq	-16(%rbp), %rax
	movq	%rax, %rdi
	call	_ZNKSt12_Vector_baseIjSaIjEE19_M_get_Tp_allocatorEv
	movq	%rax, %rdx
	movq	-8(%rbp), %rax
	movq	%rdx, %rsi
	movq	%rax, %rdi
	call	_ZNSaIjEC1ERKS_
	movq	-8(%rbp), %rax
	leave
	.cfi_def_cfa 7, 8
	ret
	.cfi_endproc
.LFE3888:
	.size	_ZNKSt12_Vector_baseIjSaIjEE13get_allocatorEv, .-_ZNKSt12_Vector_baseIjSaIjEE13get_allocatorEv
	.section	.text._ZNSt6vectorIjSaIjEEC2ERKS0_,"axG",@progbits,_ZNSt6vectorIjSaIjEEC5ERKS0_,comdat
	.align 2
	.weak	_ZNSt6vectorIjSaIjEEC2ERKS0_
	.type	_ZNSt6vectorIjSaIjEEC2ERKS0_, @function
_ZNSt6vectorIjSaIjEEC2ERKS0_:
.LFB3890:
	.cfi_startproc
	endbr64
	pushq	%rbp
	.cfi_def_cfa_offset 16
	.cfi_offset 6, -16
	movq	%rsp, %rbp
	.cfi_def_cfa_register 6
	subq	$16, %rsp
	movq	%rdi, -8(%rbp)
	movq	%rsi, -16(%rbp)
	movq	-8(%rbp), %rax
	movq	-16(%rbp), %rdx
	movq	%rdx, %rsi
	movq	%rax, %rdi
	call	_ZNSt12_Vector_baseIjSaIjEEC2ERKS0_
	nop
	leave
	.cfi_def_cfa 7, 8
	ret
	.cfi_endproc
.LFE3890:
	.size	_ZNSt6vectorIjSaIjEEC2ERKS0_, .-_ZNSt6vectorIjSaIjEEC2ERKS0_
	.weak	_ZNSt6vectorIjSaIjEEC1ERKS0_
	.set	_ZNSt6vectorIjSaIjEEC1ERKS0_,_ZNSt6vectorIjSaIjEEC2ERKS0_
	.section	.text._ZNSt12_Vector_baseIjSaIjEE17_Vector_impl_data12_M_swap_dataERS2_,"axG",@progbits,_ZNSt12_Vector_baseIjSaIjEE17_Vector_impl_data12_M_swap_dataERS2_,comdat
	.align 2
	.weak	_ZNSt12_Vector_baseIjSaIjEE17_Vector_impl_data12_M_swap_dataERS2_
	.type	_ZNSt12_Vector_baseIjSaIjEE17_Vector_impl_data12_M_swap_dataERS2_, @function
_ZNSt12_Vector_baseIjSaIjEE17_Vector_impl_data12_M_swap_dataERS2_:
.LFB3892:
	.cfi_startproc
	endbr64
	pushq	%rbp
	.cfi_def_cfa_offset 16
	.cfi_offset 6, -16
	movq	%rsp, %rbp
	.cfi_def_cfa_register 6
	subq	$48, %rsp
	movq	%rdi, -40(%rbp)
	movq	%rsi, -48(%rbp)
	movq	%fs:40, %rax
	movq	%rax, -8(%rbp)
	xorl	%eax, %eax
	leaq	-32(%rbp), %rax
	movq	%rax, %rdi
	call	_ZNSt12_Vector_baseIjSaIjEE17_Vector_impl_dataC1Ev
	movq	-40(%rbp), %rdx
	leaq	-32(%rbp), %rax
	movq	%rdx, %rsi
	movq	%rax, %rdi
	call	_ZNSt12_Vector_baseIjSaIjEE17_Vector_impl_data12_M_copy_dataERKS2_
	movq	-48(%rbp), %rdx
	movq	-40(%rbp), %rax
	movq	%rdx, %rsi
	movq	%rax, %rdi
	call	_ZNSt12_Vector_baseIjSaIjEE17_Vector_impl_data12_M_copy_dataERKS2_
	leaq	-32(%rbp), %rdx
	movq	-48(%rbp), %rax
	movq	%rdx, %rsi
	movq	%rax, %rdi
	call	_ZNSt12_Vector_baseIjSaIjEE17_Vector_impl_data12_M_copy_dataERKS2_
	nop
	movq	-8(%rbp), %rax
	xorq	%fs:40, %rax
	je	.L324
	call	__stack_chk_fail@PLT
.L324:
	leave
	.cfi_def_cfa 7, 8
	ret
	.cfi_endproc
.LFE3892:
	.size	_ZNSt12_Vector_baseIjSaIjEE17_Vector_impl_data12_M_swap_dataERS2_, .-_ZNSt12_Vector_baseIjSaIjEE17_Vector_impl_data12_M_swap_dataERS2_
	.section	.text._ZSt15__alloc_on_moveISaIjEEvRT_S2_,"axG",@progbits,_ZSt15__alloc_on_moveISaIjEEvRT_S2_,comdat
	.weak	_ZSt15__alloc_on_moveISaIjEEvRT_S2_
	.type	_ZSt15__alloc_on_moveISaIjEEvRT_S2_, @function
_ZSt15__alloc_on_moveISaIjEEvRT_S2_:
.LFB3893:
	.cfi_startproc
	endbr64
	pushq	%rbp
	.cfi_def_cfa_offset 16
	.cfi_offset 6, -16
	movq	%rsp, %rbp
	.cfi_def_cfa_register 6
	subq	$32, %rsp
	movq	%rdi, -24(%rbp)
	movq	%rsi, -32(%rbp)
	movq	%fs:40, %rax
	movq	%rax, -8(%rbp)
	xorl	%eax, %eax
	movq	-32(%rbp), %rdx
	movq	-24(%rbp), %rax
	movq	%rdx, %rsi
	movq	%rax, %rdi
	call	_ZSt18__do_alloc_on_moveISaIjEEvRT_S2_St17integral_constantIbLb1EE
	nop
	movq	-8(%rbp), %rax
	xorq	%fs:40, %rax
	je	.L326
	call	__stack_chk_fail@PLT
.L326:
	leave
	.cfi_def_cfa 7, 8
	ret
	.cfi_endproc
.LFE3893:
	.size	_ZSt15__alloc_on_moveISaIjEEvRT_S2_, .-_ZSt15__alloc_on_moveISaIjEEvRT_S2_
	.section	.text._ZNSt6chrono8durationIlSt5ratioILl1ELl1000EEEC2IlvEERKT_,"axG",@progbits,_ZNSt6chrono8durationIlSt5ratioILl1ELl1000EEEC5IlvEERKT_,comdat
	.align 2
	.weak	_ZNSt6chrono8durationIlSt5ratioILl1ELl1000EEEC2IlvEERKT_
	.type	_ZNSt6chrono8durationIlSt5ratioILl1ELl1000EEEC2IlvEERKT_, @function
_ZNSt6chrono8durationIlSt5ratioILl1ELl1000EEEC2IlvEERKT_:
.LFB3896:
	.cfi_startproc
	endbr64
	pushq	%rbp
	.cfi_def_cfa_offset 16
	.cfi_offset 6, -16
	movq	%rsp, %rbp
	.cfi_def_cfa_register 6
	movq	%rdi, -8(%rbp)
	movq	%rsi, -16(%rbp)
	movq	-16(%rbp), %rax
	movq	(%rax), %rdx
	movq	-8(%rbp), %rax
	movq	%rdx, (%rax)
	nop
	popq	%rbp
	.cfi_def_cfa 7, 8
	ret
	.cfi_endproc
.LFE3896:
	.size	_ZNSt6chrono8durationIlSt5ratioILl1ELl1000EEEC2IlvEERKT_, .-_ZNSt6chrono8durationIlSt5ratioILl1ELl1000EEEC2IlvEERKT_
	.weak	_ZNSt6chrono8durationIlSt5ratioILl1ELl1000EEEC1IlvEERKT_
	.set	_ZNSt6chrono8durationIlSt5ratioILl1ELl1000EEEC1IlvEERKT_,_ZNSt6chrono8durationIlSt5ratioILl1ELl1000EEEC2IlvEERKT_
	.section	.text._ZN9__gnu_cxx13new_allocatorIjE10deallocateEPjm,"axG",@progbits,_ZN9__gnu_cxx13new_allocatorIjE10deallocateEPjm,comdat
	.align 2
	.weak	_ZN9__gnu_cxx13new_allocatorIjE10deallocateEPjm
	.type	_ZN9__gnu_cxx13new_allocatorIjE10deallocateEPjm, @function
_ZN9__gnu_cxx13new_allocatorIjE10deallocateEPjm:
.LFB3933:
	.cfi_startproc
	endbr64
	pushq	%rbp
	.cfi_def_cfa_offset 16
	.cfi_offset 6, -16
	movq	%rsp, %rbp
	.cfi_def_cfa_register 6
	subq	$32, %rsp
	movq	%rdi, -8(%rbp)
	movq	%rsi, -16(%rbp)
	movq	%rdx, -24(%rbp)
	movq	-16(%rbp), %rax
	movq	%rax, %rdi
	call	_ZdlPv@PLT
	nop
	leave
	.cfi_def_cfa 7, 8
	ret
	.cfi_endproc
.LFE3933:
	.size	_ZN9__gnu_cxx13new_allocatorIjE10deallocateEPjm, .-_ZN9__gnu_cxx13new_allocatorIjE10deallocateEPjm
	.section	.text._ZNSt12_Destroy_auxILb1EE9__destroyIPjEEvT_S3_,"axG",@progbits,_ZNSt12_Destroy_auxILb1EE9__destroyIPjEEvT_S3_,comdat
	.weak	_ZNSt12_Destroy_auxILb1EE9__destroyIPjEEvT_S3_
	.type	_ZNSt12_Destroy_auxILb1EE9__destroyIPjEEvT_S3_, @function
_ZNSt12_Destroy_auxILb1EE9__destroyIPjEEvT_S3_:
.LFB3934:
	.cfi_startproc
	endbr64
	pushq	%rbp
	.cfi_def_cfa_offset 16
	.cfi_offset 6, -16
	movq	%rsp, %rbp
	.cfi_def_cfa_register 6
	movq	%rdi, -8(%rbp)
	movq	%rsi, -16(%rbp)
	nop
	popq	%rbp
	.cfi_def_cfa 7, 8
	ret
	.cfi_endproc
.LFE3934:
	.size	_ZNSt12_Destroy_auxILb1EE9__destroyIPjEEvT_S3_, .-_ZNSt12_Destroy_auxILb1EE9__destroyIPjEEvT_S3_
	.section	.text._ZN9__gnu_cxx13new_allocatorIjE9constructIjJjEEEvPT_DpOT0_,"axG",@progbits,_ZN9__gnu_cxx13new_allocatorIjE9constructIjJjEEEvPT_DpOT0_,comdat
	.align 2
	.weak	_ZN9__gnu_cxx13new_allocatorIjE9constructIjJjEEEvPT_DpOT0_
	.type	_ZN9__gnu_cxx13new_allocatorIjE9constructIjJjEEEvPT_DpOT0_, @function
_ZN9__gnu_cxx13new_allocatorIjE9constructIjJjEEEvPT_DpOT0_:
.LFB3935:
	.cfi_startproc
	endbr64
	pushq	%rbp
	.cfi_def_cfa_offset 16
	.cfi_offset 6, -16
	movq	%rsp, %rbp
	.cfi_def_cfa_register 6
	pushq	%rbx
	subq	$40, %rsp
	.cfi_offset 3, -24
	movq	%rdi, -24(%rbp)
	movq	%rsi, -32(%rbp)
	movq	%rdx, -40(%rbp)
	movq	-40(%rbp), %rax
	movq	%rax, %rdi
	call	_ZSt7forwardIjEOT_RNSt16remove_referenceIS0_E4typeE
	movl	(%rax), %ebx
	movq	-32(%rbp), %rax
	movq	%rax, %rsi
	movl	$4, %edi
	call	_ZnwmPv
	movl	%ebx, (%rax)
	nop
	addq	$40, %rsp
	popq	%rbx
	popq	%rbp
	.cfi_def_cfa 7, 8
	ret
	.cfi_endproc
.LFE3935:
	.size	_ZN9__gnu_cxx13new_allocatorIjE9constructIjJjEEEvPT_DpOT0_, .-_ZN9__gnu_cxx13new_allocatorIjE9constructIjJjEEEvPT_DpOT0_
	.section	.text._ZNSt6vectorIjSaIjEE11_S_relocateEPjS2_S2_RS0_,"axG",@progbits,_ZNSt6vectorIjSaIjEE11_S_relocateEPjS2_S2_RS0_,comdat
	.weak	_ZNSt6vectorIjSaIjEE11_S_relocateEPjS2_S2_RS0_
	.type	_ZNSt6vectorIjSaIjEE11_S_relocateEPjS2_S2_RS0_, @function
_ZNSt6vectorIjSaIjEE11_S_relocateEPjS2_S2_RS0_:
.LFB3936:
	.cfi_startproc
	endbr64
	pushq	%rbp
	.cfi_def_cfa_offset 16
	.cfi_offset 6, -16
	movq	%rsp, %rbp
	.cfi_def_cfa_register 6
	subq	$48, %rsp
	movq	%rdi, -24(%rbp)
	movq	%rsi, -32(%rbp)
	movq	%rdx, -40(%rbp)
	movq	%rcx, -48(%rbp)
	movq	%fs:40, %rax
	movq	%rax, -8(%rbp)
	xorl	%eax, %eax
	movq	-48(%rbp), %rcx
	movq	-40(%rbp), %rdx
	movq	-32(%rbp), %rsi
	movq	-24(%rbp), %rax
	movq	%rax, %rdi
	call	_ZNSt6vectorIjSaIjEE14_S_do_relocateEPjS2_S2_RS0_St17integral_constantIbLb1EE
	movq	-8(%rbp), %rdi
	xorq	%fs:40, %rdi
	je	.L333
	call	__stack_chk_fail@PLT
.L333:
	leave
	.cfi_def_cfa 7, 8
	ret
	.cfi_endproc
.LFE3936:
	.size	_ZNSt6vectorIjSaIjEE11_S_relocateEPjS2_S2_RS0_, .-_ZNSt6vectorIjSaIjEE11_S_relocateEPjS2_S2_RS0_
	.section	.text._ZNSt16allocator_traitsISaIjEE7destroyIjEEvRS0_PT_,"axG",@progbits,_ZNSt16allocator_traitsISaIjEE7destroyIjEEvRS0_PT_,comdat
	.weak	_ZNSt16allocator_traitsISaIjEE7destroyIjEEvRS0_PT_
	.type	_ZNSt16allocator_traitsISaIjEE7destroyIjEEvRS0_PT_, @function
_ZNSt16allocator_traitsISaIjEE7destroyIjEEvRS0_PT_:
.LFB3937:
	.cfi_startproc
	endbr64
	pushq	%rbp
	.cfi_def_cfa_offset 16
	.cfi_offset 6, -16
	movq	%rsp, %rbp
	.cfi_def_cfa_register 6
	subq	$16, %rsp
	movq	%rdi, -8(%rbp)
	movq	%rsi, -16(%rbp)
	movq	-16(%rbp), %rdx
	movq	-8(%rbp), %rax
	movq	%rdx, %rsi
	movq	%rax, %rdi
	call	_ZN9__gnu_cxx13new_allocatorIjE7destroyIjEEvPT_
	nop
	leave
	.cfi_def_cfa 7, 8
	ret
	.cfi_endproc
.LFE3937:
	.size	_ZNSt16allocator_traitsISaIjEE7destroyIjEEvRS0_PT_, .-_ZNSt16allocator_traitsISaIjEE7destroyIjEEvRS0_PT_
	.section	.text._ZN9__gnu_cxx13new_allocatorI6BigIntE10deallocateEPS1_m,"axG",@progbits,_ZN9__gnu_cxx13new_allocatorI6BigIntE10deallocateEPS1_m,comdat
	.align 2
	.weak	_ZN9__gnu_cxx13new_allocatorI6BigIntE10deallocateEPS1_m
	.type	_ZN9__gnu_cxx13new_allocatorI6BigIntE10deallocateEPS1_m, @function
_ZN9__gnu_cxx13new_allocatorI6BigIntE10deallocateEPS1_m:
.LFB3938:
	.cfi_startproc
	endbr64
	pushq	%rbp
	.cfi_def_cfa_offset 16
	.cfi_offset 6, -16
	movq	%rsp, %rbp
	.cfi_def_cfa_register 6
	subq	$32, %rsp
	movq	%rdi, -8(%rbp)
	movq	%rsi, -16(%rbp)
	movq	%rdx, -24(%rbp)
	movq	-16(%rbp), %rax
	movq	%rax, %rdi
	call	_ZdlPv@PLT
	nop
	leave
	.cfi_def_cfa 7, 8
	ret
	.cfi_endproc
.LFE3938:
	.size	_ZN9__gnu_cxx13new_allocatorI6BigIntE10deallocateEPS1_m, .-_ZN9__gnu_cxx13new_allocatorI6BigIntE10deallocateEPS1_m
	.section	.text._ZNSt12_Destroy_auxILb0EE9__destroyIP6BigIntEEvT_S4_,"axG",@progbits,_ZNSt12_Destroy_auxILb0EE9__destroyIP6BigIntEEvT_S4_,comdat
	.weak	_ZNSt12_Destroy_auxILb0EE9__destroyIP6BigIntEEvT_S4_
	.type	_ZNSt12_Destroy_auxILb0EE9__destroyIP6BigIntEEvT_S4_, @function
_ZNSt12_Destroy_auxILb0EE9__destroyIP6BigIntEEvT_S4_:
.LFB3939:
	.cfi_startproc
	endbr64
	pushq	%rbp
	.cfi_def_cfa_offset 16
	.cfi_offset 6, -16
	movq	%rsp, %rbp
	.cfi_def_cfa_register 6
	subq	$16, %rsp
	movq	%rdi, -8(%rbp)
	movq	%rsi, -16(%rbp)
.L338:
	movq	-8(%rbp), %rax
	cmpq	-16(%rbp), %rax
	je	.L339
	movq	-8(%rbp), %rax
	movq	%rax, %rdi
	call	_ZSt11__addressofI6BigIntEPT_RS1_
	movq	%rax, %rdi
	call	_ZSt8_DestroyI6BigIntEvPT_
	addq	$32, -8(%rbp)
	jmp	.L338
.L339:
	nop
	leave
	.cfi_def_cfa 7, 8
	ret
	.cfi_endproc
.LFE3939:
	.size	_ZNSt12_Destroy_auxILb0EE9__destroyIP6BigIntEEvT_S4_, .-_ZNSt12_Destroy_auxILb0EE9__destroyIP6BigIntEEvT_S4_
	.section	.text._ZSt19__iterator_categoryIPKjENSt15iterator_traitsIT_E17iterator_categoryERKS3_,"axG",@progbits,_ZSt19__iterator_categoryIPKjENSt15iterator_traitsIT_E17iterator_categoryERKS3_,comdat
	.weak	_ZSt19__iterator_categoryIPKjENSt15iterator_traitsIT_E17iterator_categoryERKS3_
	.type	_ZSt19__iterator_categoryIPKjENSt15iterator_traitsIT_E17iterator_categoryERKS3_, @function
_ZSt19__iterator_categoryIPKjENSt15iterator_traitsIT_E17iterator_categoryERKS3_:
.LFB3940:
	.cfi_startproc
	endbr64
	pushq	%rbp
	.cfi_def_cfa_offset 16
	.cfi_offset 6, -16
	movq	%rsp, %rbp
	.cfi_def_cfa_register 6
	movq	%rdi, -8(%rbp)
	popq	%rbp
	.cfi_def_cfa 7, 8
	ret
	.cfi_endproc
.LFE3940:
	.size	_ZSt19__iterator_categoryIPKjENSt15iterator_traitsIT_E17iterator_categoryERKS3_, .-_ZSt19__iterator_categoryIPKjENSt15iterator_traitsIT_E17iterator_categoryERKS3_
	.section	.text._ZSt10__distanceIPKjENSt15iterator_traitsIT_E15difference_typeES3_S3_St26random_access_iterator_tag,"axG",@progbits,_ZSt10__distanceIPKjENSt15iterator_traitsIT_E15difference_typeES3_S3_St26random_access_iterator_tag,comdat
	.weak	_ZSt10__distanceIPKjENSt15iterator_traitsIT_E15difference_typeES3_S3_St26random_access_iterator_tag
	.type	_ZSt10__distanceIPKjENSt15iterator_traitsIT_E15difference_typeES3_S3_St26random_access_iterator_tag, @function
_ZSt10__distanceIPKjENSt15iterator_traitsIT_E15difference_typeES3_S3_St26random_access_iterator_tag:
.LFB3941:
	.cfi_startproc
	endbr64
	pushq	%rbp
	.cfi_def_cfa_offset 16
	.cfi_offset 6, -16
	movq	%rsp, %rbp
	.cfi_def_cfa_register 6
	movq	%rdi, -8(%rbp)
	movq	%rsi, -16(%rbp)
	movq	-16(%rbp), %rax
	subq	-8(%rbp), %rax
	sarq	$2, %rax
	popq	%rbp
	.cfi_def_cfa 7, 8
	ret
	.cfi_endproc
.LFE3941:
	.size	_ZSt10__distanceIPKjENSt15iterator_traitsIT_E15difference_typeES3_S3_St26random_access_iterator_tag, .-_ZSt10__distanceIPKjENSt15iterator_traitsIT_E15difference_typeES3_S3_St26random_access_iterator_tag
	.section	.text._ZNSt6vectorIjSaIjEE11_S_max_sizeERKS0_,"axG",@progbits,_ZNSt6vectorIjSaIjEE11_S_max_sizeERKS0_,comdat
	.weak	_ZNSt6vectorIjSaIjEE11_S_max_sizeERKS0_
	.type	_ZNSt6vectorIjSaIjEE11_S_max_sizeERKS0_, @function
_ZNSt6vectorIjSaIjEE11_S_max_sizeERKS0_:
.LFB3942:
	.cfi_startproc
	endbr64
	pushq	%rbp
	.cfi_def_cfa_offset 16
	.cfi_offset 6, -16
	movq	%rsp, %rbp
	.cfi_def_cfa_register 6
	subq	$48, %rsp
	movq	%rdi, -40(%rbp)
	movq	%fs:40, %rax
	movq	%rax, -8(%rbp)
	xorl	%eax, %eax
	movabsq	$2305843009213693951, %rax
	movq	%rax, -24(%rbp)
	movq	-40(%rbp), %rax
	movq	%rax, %rdi
	call	_ZNSt16allocator_traitsISaIjEE8max_sizeERKS0_
	movq	%rax, -16(%rbp)
	leaq	-16(%rbp), %rdx
	leaq	-24(%rbp), %rax
	movq	%rdx, %rsi
	movq	%rax, %rdi
	call	_ZSt3minImERKT_S2_S2_
	movq	(%rax), %rax
	movq	-8(%rbp), %rcx
	xorq	%fs:40, %rcx
	je	.L346
	call	__stack_chk_fail@PLT
.L346:
	leave
	.cfi_def_cfa 7, 8
	ret
	.cfi_endproc
.LFE3942:
	.size	_ZNSt6vectorIjSaIjEE11_S_max_sizeERKS0_, .-_ZNSt6vectorIjSaIjEE11_S_max_sizeERKS0_
	.section	.text._ZSt12__miter_baseIPKjET_S2_,"axG",@progbits,_ZSt12__miter_baseIPKjET_S2_,comdat
	.weak	_ZSt12__miter_baseIPKjET_S2_
	.type	_ZSt12__miter_baseIPKjET_S2_, @function
_ZSt12__miter_baseIPKjET_S2_:
.LFB3943:
	.cfi_startproc
	endbr64
	pushq	%rbp
	.cfi_def_cfa_offset 16
	.cfi_offset 6, -16
	movq	%rsp, %rbp
	.cfi_def_cfa_register 6
	movq	%rdi, -8(%rbp)
	movq	-8(%rbp), %rax
	popq	%rbp
	.cfi_def_cfa 7, 8
	ret
	.cfi_endproc
.LFE3943:
	.size	_ZSt12__miter_baseIPKjET_S2_, .-_ZSt12__miter_baseIPKjET_S2_
	.section	.text._ZSt14__copy_move_a2ILb0EPKjPjET1_T0_S4_S3_,"axG",@progbits,_ZSt14__copy_move_a2ILb0EPKjPjET1_T0_S4_S3_,comdat
	.weak	_ZSt14__copy_move_a2ILb0EPKjPjET1_T0_S4_S3_
	.type	_ZSt14__copy_move_a2ILb0EPKjPjET1_T0_S4_S3_, @function
_ZSt14__copy_move_a2ILb0EPKjPjET1_T0_S4_S3_:
.LFB3944:
	.cfi_startproc
	endbr64
	pushq	%rbp
	.cfi_def_cfa_offset 16
	.cfi_offset 6, -16
	movq	%rsp, %rbp
	.cfi_def_cfa_register 6
	pushq	%r12
	pushq	%rbx
	subq	$32, %rsp
	.cfi_offset 12, -24
	.cfi_offset 3, -32
	movq	%rdi, -24(%rbp)
	movq	%rsi, -32(%rbp)
	movq	%rdx, -40(%rbp)
	movq	-40(%rbp), %rax
	movq	%rax, %rdi
	call	_ZSt12__niter_baseIPjET_S1_
	movq	%rax, %r12
	movq	-32(%rbp), %rax
	movq	%rax, %rdi
	call	_ZSt12__niter_baseIPKjET_S2_
	movq	%rax, %rbx
	movq	-24(%rbp), %rax
	movq	%rax, %rdi
	call	_ZSt12__niter_baseIPKjET_S2_
	movq	%r12, %rdx
	movq	%rbx, %rsi
	movq	%rax, %rdi
	call	_ZSt13__copy_move_aILb0EPKjPjET1_T0_S4_S3_
	movq	%rax, %rdx
	leaq	-40(%rbp), %rax
	movq	%rdx, %rsi
	movq	%rax, %rdi
	call	_ZSt12__niter_wrapIPjET_RKS1_S1_
	addq	$32, %rsp
	popq	%rbx
	popq	%r12
	popq	%rbp
	.cfi_def_cfa 7, 8
	ret
	.cfi_endproc
.LFE3944:
	.size	_ZSt14__copy_move_a2ILb0EPKjPjET1_T0_S4_S3_, .-_ZSt14__copy_move_a2ILb0EPKjPjET1_T0_S4_S3_
	.section	.text._ZSt9__advanceIPKjlEvRT_T0_St26random_access_iterator_tag,"axG",@progbits,_ZSt9__advanceIPKjlEvRT_T0_St26random_access_iterator_tag,comdat
	.weak	_ZSt9__advanceIPKjlEvRT_T0_St26random_access_iterator_tag
	.type	_ZSt9__advanceIPKjlEvRT_T0_St26random_access_iterator_tag, @function
_ZSt9__advanceIPKjlEvRT_T0_St26random_access_iterator_tag:
.LFB3945:
	.cfi_startproc
	endbr64
	pushq	%rbp
	.cfi_def_cfa_offset 16
	.cfi_offset 6, -16
	movq	%rsp, %rbp
	.cfi_def_cfa_register 6
	movq	%rdi, -8(%rbp)
	movq	%rsi, -16(%rbp)
	movq	-8(%rbp), %rax
	movq	(%rax), %rax
	movq	-16(%rbp), %rdx
	salq	$2, %rdx
	addq	%rax, %rdx
	movq	-8(%rbp), %rax
	movq	%rdx, (%rax)
	nop
	popq	%rbp
	.cfi_def_cfa 7, 8
	ret
	.cfi_endproc
.LFE3945:
	.size	_ZSt9__advanceIPKjlEvRT_T0_St26random_access_iterator_tag, .-_ZSt9__advanceIPKjlEvRT_T0_St26random_access_iterator_tag
	.section	.text._ZSt18uninitialized_copyIPKjPjET0_T_S4_S3_,"axG",@progbits,_ZSt18uninitialized_copyIPKjPjET0_T_S4_S3_,comdat
	.weak	_ZSt18uninitialized_copyIPKjPjET0_T_S4_S3_
	.type	_ZSt18uninitialized_copyIPKjPjET0_T_S4_S3_, @function
_ZSt18uninitialized_copyIPKjPjET0_T_S4_S3_:
.LFB3946:
	.cfi_startproc
	endbr64
	pushq	%rbp
	.cfi_def_cfa_offset 16
	.cfi_offset 6, -16
	movq	%rsp, %rbp
	.cfi_def_cfa_register 6
	subq	$48, %rsp
	movq	%rdi, -24(%rbp)
	movq	%rsi, -32(%rbp)
	movq	%rdx, -40(%rbp)
	movb	$1, -1(%rbp)
	movq	-40(%rbp), %rdx
	movq	-32(%rbp), %rcx
	movq	-24(%rbp), %rax
	movq	%rcx, %rsi
	movq	%rax, %rdi
	call	_ZNSt20__uninitialized_copyILb1EE13__uninit_copyIPKjPjEET0_T_S6_S5_
	leave
	.cfi_def_cfa 7, 8
	ret
	.cfi_endproc
.LFE3946:
	.size	_ZSt18uninitialized_copyIPKjPjET0_T_S4_S3_, .-_ZSt18uninitialized_copyIPKjPjET0_T_S4_S3_
	.section	.text._ZNSt6vectorIjSaIjEE16_Temporary_value6_M_ptrEv,"axG",@progbits,_ZNSt6vectorIjSaIjEE16_Temporary_value6_M_ptrEv,comdat
	.align 2
	.weak	_ZNSt6vectorIjSaIjEE16_Temporary_value6_M_ptrEv
	.type	_ZNSt6vectorIjSaIjEE16_Temporary_value6_M_ptrEv, @function
_ZNSt6vectorIjSaIjEE16_Temporary_value6_M_ptrEv:
.LFB3947:
	.cfi_startproc
	endbr64
	pushq	%rbp
	.cfi_def_cfa_offset 16
	.cfi_offset 6, -16
	movq	%rsp, %rbp
	.cfi_def_cfa_register 6
	movq	%rdi, -8(%rbp)
	movq	-8(%rbp), %rax
	addq	$8, %rax
	popq	%rbp
	.cfi_def_cfa 7, 8
	ret
	.cfi_endproc
.LFE3947:
	.size	_ZNSt6vectorIjSaIjEE16_Temporary_value6_M_ptrEv, .-_ZNSt6vectorIjSaIjEE16_Temporary_value6_M_ptrEv
	.section	.text._ZSt7forwardIRKjEOT_RNSt16remove_referenceIS2_E4typeE,"axG",@progbits,_ZSt7forwardIRKjEOT_RNSt16remove_referenceIS2_E4typeE,comdat
	.weak	_ZSt7forwardIRKjEOT_RNSt16remove_referenceIS2_E4typeE
	.type	_ZSt7forwardIRKjEOT_RNSt16remove_referenceIS2_E4typeE, @function
_ZSt7forwardIRKjEOT_RNSt16remove_referenceIS2_E4typeE:
.LFB3948:
	.cfi_startproc
	endbr64
	pushq	%rbp
	.cfi_def_cfa_offset 16
	.cfi_offset 6, -16
	movq	%rsp, %rbp
	.cfi_def_cfa_register 6
	movq	%rdi, -8(%rbp)
	movq	-8(%rbp), %rax
	popq	%rbp
	.cfi_def_cfa 7, 8
	ret
	.cfi_endproc
.LFE3948:
	.size	_ZSt7forwardIRKjEOT_RNSt16remove_referenceIS2_E4typeE, .-_ZSt7forwardIRKjEOT_RNSt16remove_referenceIS2_E4typeE
	.section	.text._ZNSt16allocator_traitsISaIjEE9constructIjJRKjEEEvRS0_PT_DpOT0_,"axG",@progbits,_ZNSt16allocator_traitsISaIjEE9constructIjJRKjEEEvRS0_PT_DpOT0_,comdat
	.weak	_ZNSt16allocator_traitsISaIjEE9constructIjJRKjEEEvRS0_PT_DpOT0_
	.type	_ZNSt16allocator_traitsISaIjEE9constructIjJRKjEEEvRS0_PT_DpOT0_, @function
_ZNSt16allocator_traitsISaIjEE9constructIjJRKjEEEvRS0_PT_DpOT0_:
.LFB3949:
	.cfi_startproc
	endbr64
	pushq	%rbp
	.cfi_def_cfa_offset 16
	.cfi_offset 6, -16
	movq	%rsp, %rbp
	.cfi_def_cfa_register 6
	subq	$32, %rsp
	movq	%rdi, -8(%rbp)
	movq	%rsi, -16(%rbp)
	movq	%rdx, -24(%rbp)
	movq	-24(%rbp), %rax
	movq	%rax, %rdi
	call	_ZSt7forwardIRKjEOT_RNSt16remove_referenceIS2_E4typeE
	movq	%rax, %rdx
	movq	-16(%rbp), %rcx
	movq	-8(%rbp), %rax
	movq	%rcx, %rsi
	movq	%rax, %rdi
	call	_ZN9__gnu_cxx13new_allocatorIjE9constructIjJRKjEEEvPT_DpOT0_
	nop
	leave
	.cfi_def_cfa 7, 8
	ret
	.cfi_endproc
.LFE3949:
	.size	_ZNSt16allocator_traitsISaIjEE9constructIjJRKjEEEvRS0_PT_DpOT0_, .-_ZNSt16allocator_traitsISaIjEE9constructIjJRKjEEEvRS0_PT_DpOT0_
	.section	.text._ZSt18make_move_iteratorIPjESt13move_iteratorIT_ES2_,"axG",@progbits,_ZSt18make_move_iteratorIPjESt13move_iteratorIT_ES2_,comdat
	.weak	_ZSt18make_move_iteratorIPjESt13move_iteratorIT_ES2_
	.type	_ZSt18make_move_iteratorIPjESt13move_iteratorIT_ES2_, @function
_ZSt18make_move_iteratorIPjESt13move_iteratorIT_ES2_:
.LFB3950:
	.cfi_startproc
	endbr64
	pushq	%rbp
	.cfi_def_cfa_offset 16
	.cfi_offset 6, -16
	movq	%rsp, %rbp
	.cfi_def_cfa_register 6
	subq	$32, %rsp
	movq	%rdi, -24(%rbp)
	movq	%fs:40, %rax
	movq	%rax, -8(%rbp)
	xorl	%eax, %eax
	movq	-24(%rbp), %rdx
	leaq	-16(%rbp), %rax
	movq	%rdx, %rsi
	movq	%rax, %rdi
	call	_ZNSt13move_iteratorIPjEC1ES0_
	movq	-16(%rbp), %rax
	movq	-8(%rbp), %rcx
	xorq	%fs:40, %rcx
	je	.L361
	call	__stack_chk_fail@PLT
.L361:
	leave
	.cfi_def_cfa 7, 8
	ret
	.cfi_endproc
.LFE3950:
	.size	_ZSt18make_move_iteratorIPjESt13move_iteratorIT_ES2_, .-_ZSt18make_move_iteratorIPjESt13move_iteratorIT_ES2_
	.section	.text._ZSt22__uninitialized_copy_aISt13move_iteratorIPjES1_jET0_T_S4_S3_RSaIT1_E,"axG",@progbits,_ZSt22__uninitialized_copy_aISt13move_iteratorIPjES1_jET0_T_S4_S3_RSaIT1_E,comdat
	.weak	_ZSt22__uninitialized_copy_aISt13move_iteratorIPjES1_jET0_T_S4_S3_RSaIT1_E
	.type	_ZSt22__uninitialized_copy_aISt13move_iteratorIPjES1_jET0_T_S4_S3_RSaIT1_E, @function
_ZSt22__uninitialized_copy_aISt13move_iteratorIPjES1_jET0_T_S4_S3_RSaIT1_E:
.LFB3951:
	.cfi_startproc
	endbr64
	pushq	%rbp
	.cfi_def_cfa_offset 16
	.cfi_offset 6, -16
	movq	%rsp, %rbp
	.cfi_def_cfa_register 6
	subq	$32, %rsp
	movq	%rdi, -8(%rbp)
	movq	%rsi, -16(%rbp)
	movq	%rdx, -24(%rbp)
	movq	%rcx, -32(%rbp)
	movq	-24(%rbp), %rdx
	movq	-16(%rbp), %rcx
	movq	-8(%rbp), %rax
	movq	%rcx, %rsi
	movq	%rax, %rdi
	call	_ZSt18uninitialized_copyISt13move_iteratorIPjES1_ET0_T_S4_S3_
	leave
	.cfi_def_cfa 7, 8
	ret
	.cfi_endproc
.LFE3951:
	.size	_ZSt22__uninitialized_copy_aISt13move_iteratorIPjES1_jET0_T_S4_S3_RSaIT1_E, .-_ZSt22__uninitialized_copy_aISt13move_iteratorIPjES1_jET0_T_S4_S3_RSaIT1_E
	.section	.text._ZSt23__copy_move_backward_a2ILb1EPjS0_ET1_T0_S2_S1_,"axG",@progbits,_ZSt23__copy_move_backward_a2ILb1EPjS0_ET1_T0_S2_S1_,comdat
	.weak	_ZSt23__copy_move_backward_a2ILb1EPjS0_ET1_T0_S2_S1_
	.type	_ZSt23__copy_move_backward_a2ILb1EPjS0_ET1_T0_S2_S1_, @function
_ZSt23__copy_move_backward_a2ILb1EPjS0_ET1_T0_S2_S1_:
.LFB3952:
	.cfi_startproc
	endbr64
	pushq	%rbp
	.cfi_def_cfa_offset 16
	.cfi_offset 6, -16
	movq	%rsp, %rbp
	.cfi_def_cfa_register 6
	pushq	%r12
	pushq	%rbx
	subq	$32, %rsp
	.cfi_offset 12, -24
	.cfi_offset 3, -32
	movq	%rdi, -24(%rbp)
	movq	%rsi, -32(%rbp)
	movq	%rdx, -40(%rbp)
	movq	-40(%rbp), %rax
	movq	%rax, %rdi
	call	_ZSt12__niter_baseIPjET_S1_
	movq	%rax, %r12
	movq	-32(%rbp), %rax
	movq	%rax, %rdi
	call	_ZSt12__niter_baseIPjET_S1_
	movq	%rax, %rbx
	movq	-24(%rbp), %rax
	movq	%rax, %rdi
	call	_ZSt12__niter_baseIPjET_S1_
	movq	%r12, %rdx
	movq	%rbx, %rsi
	movq	%rax, %rdi
	call	_ZSt22__copy_move_backward_aILb1EPjS0_ET1_T0_S2_S1_
	movq	%rax, %rdx
	leaq	-40(%rbp), %rax
	movq	%rdx, %rsi
	movq	%rax, %rdi
	call	_ZSt12__niter_wrapIPjET_RKS1_S1_
	addq	$32, %rsp
	popq	%rbx
	popq	%r12
	popq	%rbp
	.cfi_def_cfa 7, 8
	ret
	.cfi_endproc
.LFE3952:
	.size	_ZSt23__copy_move_backward_a2ILb1EPjS0_ET1_T0_S2_S1_, .-_ZSt23__copy_move_backward_a2ILb1EPjS0_ET1_T0_S2_S1_
	.section	.text._ZSt12__niter_baseIPjET_S1_,"axG",@progbits,_ZSt12__niter_baseIPjET_S1_,comdat
	.weak	_ZSt12__niter_baseIPjET_S1_
	.type	_ZSt12__niter_baseIPjET_S1_, @function
_ZSt12__niter_baseIPjET_S1_:
.LFB3953:
	.cfi_startproc
	endbr64
	pushq	%rbp
	.cfi_def_cfa_offset 16
	.cfi_offset 6, -16
	movq	%rsp, %rbp
	.cfi_def_cfa_register 6
	movq	%rdi, -8(%rbp)
	movq	-8(%rbp), %rax
	popq	%rbp
	.cfi_def_cfa 7, 8
	ret
	.cfi_endproc
.LFE3953:
	.size	_ZSt12__niter_baseIPjET_S1_, .-_ZSt12__niter_baseIPjET_S1_
	.section	.text._ZSt8__fill_aIPjjEN9__gnu_cxx11__enable_ifIXsrSt11__is_scalarIT0_E7__valueEvE6__typeET_S8_RKS4_,"axG",@progbits,_ZSt8__fill_aIPjjEN9__gnu_cxx11__enable_ifIXsrSt11__is_scalarIT0_E7__valueEvE6__typeET_S8_RKS4_,comdat
	.weak	_ZSt8__fill_aIPjjEN9__gnu_cxx11__enable_ifIXsrSt11__is_scalarIT0_E7__valueEvE6__typeET_S8_RKS4_
	.type	_ZSt8__fill_aIPjjEN9__gnu_cxx11__enable_ifIXsrSt11__is_scalarIT0_E7__valueEvE6__typeET_S8_RKS4_, @function
_ZSt8__fill_aIPjjEN9__gnu_cxx11__enable_ifIXsrSt11__is_scalarIT0_E7__valueEvE6__typeET_S8_RKS4_:
.LFB3954:
	.cfi_startproc
	endbr64
	pushq	%rbp
	.cfi_def_cfa_offset 16
	.cfi_offset 6, -16
	movq	%rsp, %rbp
	.cfi_def_cfa_register 6
	movq	%rdi, -24(%rbp)
	movq	%rsi, -32(%rbp)
	movq	%rdx, -40(%rbp)
	movq	-40(%rbp), %rax
	movl	(%rax), %eax
	movl	%eax, -4(%rbp)
.L370:
	movq	-24(%rbp), %rax
	cmpq	-32(%rbp), %rax
	je	.L371
	movq	-24(%rbp), %rax
	movl	-4(%rbp), %edx
	movl	%edx, (%rax)
	addq	$4, -24(%rbp)
	jmp	.L370
.L371:
	nop
	popq	%rbp
	.cfi_def_cfa 7, 8
	ret
	.cfi_endproc
.LFE3954:
	.size	_ZSt8__fill_aIPjjEN9__gnu_cxx11__enable_ifIXsrSt11__is_scalarIT0_E7__valueEvE6__typeET_S8_RKS4_, .-_ZSt8__fill_aIPjjEN9__gnu_cxx11__enable_ifIXsrSt11__is_scalarIT0_E7__valueEvE6__typeET_S8_RKS4_
	.section	.text._ZSt20uninitialized_fill_nIPjmjET_S1_T0_RKT1_,"axG",@progbits,_ZSt20uninitialized_fill_nIPjmjET_S1_T0_RKT1_,comdat
	.weak	_ZSt20uninitialized_fill_nIPjmjET_S1_T0_RKT1_
	.type	_ZSt20uninitialized_fill_nIPjmjET_S1_T0_RKT1_, @function
_ZSt20uninitialized_fill_nIPjmjET_S1_T0_RKT1_:
.LFB3955:
	.cfi_startproc
	endbr64
	pushq	%rbp
	.cfi_def_cfa_offset 16
	.cfi_offset 6, -16
	movq	%rsp, %rbp
	.cfi_def_cfa_register 6
	subq	$48, %rsp
	movq	%rdi, -24(%rbp)
	movq	%rsi, -32(%rbp)
	movq	%rdx, -40(%rbp)
	movb	$1, -1(%rbp)
	movq	-40(%rbp), %rdx
	movq	-32(%rbp), %rcx
	movq	-24(%rbp), %rax
	movq	%rcx, %rsi
	movq	%rax, %rdi
	call	_ZNSt22__uninitialized_fill_nILb1EE15__uninit_fill_nIPjmjEET_S3_T0_RKT1_
	leave
	.cfi_def_cfa 7, 8
	ret
	.cfi_endproc
.LFE3955:
	.size	_ZSt20uninitialized_fill_nIPjmjET_S1_T0_RKT1_, .-_ZSt20uninitialized_fill_nIPjmjET_S1_T0_RKT1_
	.section	.text._ZNKSt6vectorIjSaIjEE8max_sizeEv,"axG",@progbits,_ZNKSt6vectorIjSaIjEE8max_sizeEv,comdat
	.align 2
	.weak	_ZNKSt6vectorIjSaIjEE8max_sizeEv
	.type	_ZNKSt6vectorIjSaIjEE8max_sizeEv, @function
_ZNKSt6vectorIjSaIjEE8max_sizeEv:
.LFB3956:
	.cfi_startproc
	endbr64
	pushq	%rbp
	.cfi_def_cfa_offset 16
	.cfi_offset 6, -16
	movq	%rsp, %rbp
	.cfi_def_cfa_register 6
	subq	$16, %rsp
	movq	%rdi, -8(%rbp)
	movq	-8(%rbp), %rax
	movq	%rax, %rdi
	call	_ZNKSt12_Vector_baseIjSaIjEE19_M_get_Tp_allocatorEv
	movq	%rax, %rdi
	call	_ZNSt6vectorIjSaIjEE11_S_max_sizeERKS0_
	leave
	.cfi_def_cfa 7, 8
	ret
	.cfi_endproc
.LFE3956:
	.size	_ZNKSt6vectorIjSaIjEE8max_sizeEv, .-_ZNKSt6vectorIjSaIjEE8max_sizeEv
	.section	.text._ZSt3maxImERKT_S2_S2_,"axG",@progbits,_ZSt3maxImERKT_S2_S2_,comdat
	.weak	_ZSt3maxImERKT_S2_S2_
	.type	_ZSt3maxImERKT_S2_S2_, @function
_ZSt3maxImERKT_S2_S2_:
.LFB3957:
	.cfi_startproc
	endbr64
	pushq	%rbp
	.cfi_def_cfa_offset 16
	.cfi_offset 6, -16
	movq	%rsp, %rbp
	.cfi_def_cfa_register 6
	movq	%rdi, -8(%rbp)
	movq	%rsi, -16(%rbp)
	movq	-8(%rbp), %rax
	movq	(%rax), %rdx
	movq	-16(%rbp), %rax
	movq	(%rax), %rax
	cmpq	%rax, %rdx
	jnb	.L377
	movq	-16(%rbp), %rax
	jmp	.L378
.L377:
	movq	-8(%rbp), %rax
.L378:
	popq	%rbp
	.cfi_def_cfa 7, 8
	ret
	.cfi_endproc
.LFE3957:
	.size	_ZSt3maxImERKT_S2_S2_, .-_ZSt3maxImERKT_S2_S2_
	.section	.text._ZNSt16allocator_traitsISaIjEE8allocateERS0_m,"axG",@progbits,_ZNSt16allocator_traitsISaIjEE8allocateERS0_m,comdat
	.weak	_ZNSt16allocator_traitsISaIjEE8allocateERS0_m
	.type	_ZNSt16allocator_traitsISaIjEE8allocateERS0_m, @function
_ZNSt16allocator_traitsISaIjEE8allocateERS0_m:
.LFB3958:
	.cfi_startproc
	endbr64
	pushq	%rbp
	.cfi_def_cfa_offset 16
	.cfi_offset 6, -16
	movq	%rsp, %rbp
	.cfi_def_cfa_register 6
	subq	$16, %rsp
	movq	%rdi, -8(%rbp)
	movq	%rsi, -16(%rbp)
	movq	-16(%rbp), %rcx
	movq	-8(%rbp), %rax
	movl	$0, %edx
	movq	%rcx, %rsi
	movq	%rax, %rdi
	call	_ZN9__gnu_cxx13new_allocatorIjE8allocateEmPKv
	leave
	.cfi_def_cfa 7, 8
	ret
	.cfi_endproc
.LFE3958:
	.size	_ZNSt16allocator_traitsISaIjEE8allocateERS0_m, .-_ZNSt16allocator_traitsISaIjEE8allocateERS0_m
	.section	.text._ZSt32__make_move_if_noexcept_iteratorIjSt13move_iteratorIPjEET0_PT_,"axG",@progbits,_ZSt32__make_move_if_noexcept_iteratorIjSt13move_iteratorIPjEET0_PT_,comdat
	.weak	_ZSt32__make_move_if_noexcept_iteratorIjSt13move_iteratorIPjEET0_PT_
	.type	_ZSt32__make_move_if_noexcept_iteratorIjSt13move_iteratorIPjEET0_PT_, @function
_ZSt32__make_move_if_noexcept_iteratorIjSt13move_iteratorIPjEET0_PT_:
.LFB3959:
	.cfi_startproc
	endbr64
	pushq	%rbp
	.cfi_def_cfa_offset 16
	.cfi_offset 6, -16
	movq	%rsp, %rbp
	.cfi_def_cfa_register 6
	subq	$32, %rsp
	movq	%rdi, -24(%rbp)
	movq	%fs:40, %rax
	movq	%rax, -8(%rbp)
	xorl	%eax, %eax
	movq	-24(%rbp), %rdx
	leaq	-16(%rbp), %rax
	movq	%rdx, %rsi
	movq	%rax, %rdi
	call	_ZNSt13move_iteratorIPjEC1ES0_
	movq	-16(%rbp), %rax
	movq	-8(%rbp), %rcx
	xorq	%fs:40, %rcx
	je	.L383
	call	__stack_chk_fail@PLT
.L383:
	leave
	.cfi_def_cfa 7, 8
	ret
	.cfi_endproc
.LFE3959:
	.size	_ZSt32__make_move_if_noexcept_iteratorIjSt13move_iteratorIPjEET0_PT_, .-_ZSt32__make_move_if_noexcept_iteratorIjSt13move_iteratorIPjEET0_PT_
	.section	.text._ZSt18uninitialized_copyIN9__gnu_cxx17__normal_iteratorIPKjSt6vectorIjSaIjEEEEPjET0_T_SA_S9_,"axG",@progbits,_ZSt18uninitialized_copyIN9__gnu_cxx17__normal_iteratorIPKjSt6vectorIjSaIjEEEEPjET0_T_SA_S9_,comdat
	.weak	_ZSt18uninitialized_copyIN9__gnu_cxx17__normal_iteratorIPKjSt6vectorIjSaIjEEEEPjET0_T_SA_S9_
	.type	_ZSt18uninitialized_copyIN9__gnu_cxx17__normal_iteratorIPKjSt6vectorIjSaIjEEEEPjET0_T_SA_S9_, @function
_ZSt18uninitialized_copyIN9__gnu_cxx17__normal_iteratorIPKjSt6vectorIjSaIjEEEEPjET0_T_SA_S9_:
.LFB3960:
	.cfi_startproc
	endbr64
	pushq	%rbp
	.cfi_def_cfa_offset 16
	.cfi_offset 6, -16
	movq	%rsp, %rbp
	.cfi_def_cfa_register 6
	subq	$48, %rsp
	movq	%rdi, -24(%rbp)
	movq	%rsi, -32(%rbp)
	movq	%rdx, -40(%rbp)
	movb	$1, -1(%rbp)
	movq	-40(%rbp), %rdx
	movq	-32(%rbp), %rcx
	movq	-24(%rbp), %rax
	movq	%rcx, %rsi
	movq	%rax, %rdi
	call	_ZNSt20__uninitialized_copyILb1EE13__uninit_copyIN9__gnu_cxx17__normal_iteratorIPKjSt6vectorIjSaIjEEEEPjEET0_T_SC_SB_
	leave
	.cfi_def_cfa 7, 8
	ret
	.cfi_endproc
.LFE3960:
	.size	_ZSt18uninitialized_copyIN9__gnu_cxx17__normal_iteratorIPKjSt6vectorIjSaIjEEEEPjET0_T_SA_S9_, .-_ZSt18uninitialized_copyIN9__gnu_cxx17__normal_iteratorIPKjSt6vectorIjSaIjEEEEPjET0_T_SA_S9_
	.section	.text._ZSt12__niter_baseIPKjSt6vectorIjSaIjEEET_N9__gnu_cxx17__normal_iteratorIS5_T0_EE,"axG",@progbits,_ZSt12__niter_baseIPKjSt6vectorIjSaIjEEET_N9__gnu_cxx17__normal_iteratorIS5_T0_EE,comdat
	.weak	_ZSt12__niter_baseIPKjSt6vectorIjSaIjEEET_N9__gnu_cxx17__normal_iteratorIS5_T0_EE
	.type	_ZSt12__niter_baseIPKjSt6vectorIjSaIjEEET_N9__gnu_cxx17__normal_iteratorIS5_T0_EE, @function
_ZSt12__niter_baseIPKjSt6vectorIjSaIjEEET_N9__gnu_cxx17__normal_iteratorIS5_T0_EE:
.LFB3961:
	.cfi_startproc
	endbr64
	pushq	%rbp
	.cfi_def_cfa_offset 16
	.cfi_offset 6, -16
	movq	%rsp, %rbp
	.cfi_def_cfa_register 6
	subq	$16, %rsp
	movq	%rdi, -8(%rbp)
	leaq	-8(%rbp), %rax
	movq	%rax, %rdi
	call	_ZNK9__gnu_cxx17__normal_iteratorIPKjSt6vectorIjSaIjEEE4baseEv
	movq	(%rax), %rax
	leave
	.cfi_def_cfa 7, 8
	ret
	.cfi_endproc
.LFE3961:
	.size	_ZSt12__niter_baseIPKjSt6vectorIjSaIjEEET_N9__gnu_cxx17__normal_iteratorIS5_T0_EE, .-_ZSt12__niter_baseIPKjSt6vectorIjSaIjEEET_N9__gnu_cxx17__normal_iteratorIS5_T0_EE
	.section	.text._ZSt12__niter_baseIPjSt6vectorIjSaIjEEET_N9__gnu_cxx17__normal_iteratorIS4_T0_EE,"axG",@progbits,_ZSt12__niter_baseIPjSt6vectorIjSaIjEEET_N9__gnu_cxx17__normal_iteratorIS4_T0_EE,comdat
	.weak	_ZSt12__niter_baseIPjSt6vectorIjSaIjEEET_N9__gnu_cxx17__normal_iteratorIS4_T0_EE
	.type	_ZSt12__niter_baseIPjSt6vectorIjSaIjEEET_N9__gnu_cxx17__normal_iteratorIS4_T0_EE, @function
_ZSt12__niter_baseIPjSt6vectorIjSaIjEEET_N9__gnu_cxx17__normal_iteratorIS4_T0_EE:
.LFB3962:
	.cfi_startproc
	endbr64
	pushq	%rbp
	.cfi_def_cfa_offset 16
	.cfi_offset 6, -16
	movq	%rsp, %rbp
	.cfi_def_cfa_register 6
	subq	$16, %rsp
	movq	%rdi, -8(%rbp)
	leaq	-8(%rbp), %rax
	movq	%rax, %rdi
	call	_ZNK9__gnu_cxx17__normal_iteratorIPjSt6vectorIjSaIjEEE4baseEv
	movq	(%rax), %rax
	leave
	.cfi_def_cfa 7, 8
	ret
	.cfi_endproc
.LFE3962:
	.size	_ZSt12__niter_baseIPjSt6vectorIjSaIjEEET_N9__gnu_cxx17__normal_iteratorIS4_T0_EE, .-_ZSt12__niter_baseIPjSt6vectorIjSaIjEEET_N9__gnu_cxx17__normal_iteratorIS4_T0_EE
	.section	.text._ZSt13__copy_move_aILb0EPKjPjET1_T0_S4_S3_,"axG",@progbits,_ZSt13__copy_move_aILb0EPKjPjET1_T0_S4_S3_,comdat
	.weak	_ZSt13__copy_move_aILb0EPKjPjET1_T0_S4_S3_
	.type	_ZSt13__copy_move_aILb0EPKjPjET1_T0_S4_S3_, @function
_ZSt13__copy_move_aILb0EPKjPjET1_T0_S4_S3_:
.LFB3963:
	.cfi_startproc
	endbr64
	pushq	%rbp
	.cfi_def_cfa_offset 16
	.cfi_offset 6, -16
	movq	%rsp, %rbp
	.cfi_def_cfa_register 6
	subq	$48, %rsp
	movq	%rdi, -24(%rbp)
	movq	%rsi, -32(%rbp)
	movq	%rdx, -40(%rbp)
	movb	$1, -1(%rbp)
	movq	-40(%rbp), %rdx
	movq	-32(%rbp), %rcx
	movq	-24(%rbp), %rax
	movq	%rcx, %rsi
	movq	%rax, %rdi
	call	_ZNSt11__copy_moveILb0ELb1ESt26random_access_iterator_tagE8__copy_mIjEEPT_PKS3_S6_S4_
	leave
	.cfi_def_cfa 7, 8
	ret
	.cfi_endproc
.LFE3963:
	.size	_ZSt13__copy_move_aILb0EPKjPjET1_T0_S4_S3_, .-_ZSt13__copy_move_aILb0EPKjPjET1_T0_S4_S3_
	.section	.text._ZSt12__niter_wrapIN9__gnu_cxx17__normal_iteratorIPjSt6vectorIjSaIjEEEES2_ET_S7_T0_,"axG",@progbits,_ZSt12__niter_wrapIN9__gnu_cxx17__normal_iteratorIPjSt6vectorIjSaIjEEEES2_ET_S7_T0_,comdat
	.weak	_ZSt12__niter_wrapIN9__gnu_cxx17__normal_iteratorIPjSt6vectorIjSaIjEEEES2_ET_S7_T0_
	.type	_ZSt12__niter_wrapIN9__gnu_cxx17__normal_iteratorIPjSt6vectorIjSaIjEEEES2_ET_S7_T0_, @function
_ZSt12__niter_wrapIN9__gnu_cxx17__normal_iteratorIPjSt6vectorIjSaIjEEEES2_ET_S7_T0_:
.LFB3964:
	.cfi_startproc
	endbr64
	pushq	%rbp
	.cfi_def_cfa_offset 16
	.cfi_offset 6, -16
	movq	%rsp, %rbp
	.cfi_def_cfa_register 6
	subq	$16, %rsp
	movq	%rdi, -8(%rbp)
	movq	%rsi, -16(%rbp)
	movq	-8(%rbp), %rax
	movq	%rax, %rdi
	call	_ZSt12__niter_baseIPjSt6vectorIjSaIjEEET_N9__gnu_cxx17__normal_iteratorIS4_T0_EE
	movq	-16(%rbp), %rdx
	subq	%rax, %rdx
	movq	%rdx, %rax
	sarq	$2, %rax
	movq	%rax, %rdx
	leaq	-8(%rbp), %rax
	movq	%rdx, %rsi
	movq	%rax, %rdi
	call	_ZNK9__gnu_cxx17__normal_iteratorIPjSt6vectorIjSaIjEEEplEl
	leave
	.cfi_def_cfa 7, 8
	ret
	.cfi_endproc
.LFE3964:
	.size	_ZSt12__niter_wrapIN9__gnu_cxx17__normal_iteratorIPjSt6vectorIjSaIjEEEES2_ET_S7_T0_, .-_ZSt12__niter_wrapIN9__gnu_cxx17__normal_iteratorIPjSt6vectorIjSaIjEEEES2_ET_S7_T0_
	.section	.text._ZNSt12_Destroy_auxILb1EE9__destroyIN9__gnu_cxx17__normal_iteratorIPjSt6vectorIjSaIjEEEEEEvT_S9_,"axG",@progbits,_ZNSt12_Destroy_auxILb1EE9__destroyIN9__gnu_cxx17__normal_iteratorIPjSt6vectorIjSaIjEEEEEEvT_S9_,comdat
	.weak	_ZNSt12_Destroy_auxILb1EE9__destroyIN9__gnu_cxx17__normal_iteratorIPjSt6vectorIjSaIjEEEEEEvT_S9_
	.type	_ZNSt12_Destroy_auxILb1EE9__destroyIN9__gnu_cxx17__normal_iteratorIPjSt6vectorIjSaIjEEEEEEvT_S9_, @function
_ZNSt12_Destroy_auxILb1EE9__destroyIN9__gnu_cxx17__normal_iteratorIPjSt6vectorIjSaIjEEEEEEvT_S9_:
.LFB3965:
	.cfi_startproc
	endbr64
	pushq	%rbp
	.cfi_def_cfa_offset 16
	.cfi_offset 6, -16
	movq	%rsp, %rbp
	.cfi_def_cfa_register 6
	movq	%rdi, -8(%rbp)
	movq	%rsi, -16(%rbp)
	nop
	popq	%rbp
	.cfi_def_cfa 7, 8
	ret
	.cfi_endproc
.LFE3965:
	.size	_ZNSt12_Destroy_auxILb1EE9__destroyIN9__gnu_cxx17__normal_iteratorIPjSt6vectorIjSaIjEEEEEEvT_S9_, .-_ZNSt12_Destroy_auxILb1EE9__destroyIN9__gnu_cxx17__normal_iteratorIPjSt6vectorIjSaIjEEEEEEvT_S9_
	.section	.text._ZSt13__copy_move_aILb0EPjS0_ET1_T0_S2_S1_,"axG",@progbits,_ZSt13__copy_move_aILb0EPjS0_ET1_T0_S2_S1_,comdat
	.weak	_ZSt13__copy_move_aILb0EPjS0_ET1_T0_S2_S1_
	.type	_ZSt13__copy_move_aILb0EPjS0_ET1_T0_S2_S1_, @function
_ZSt13__copy_move_aILb0EPjS0_ET1_T0_S2_S1_:
.LFB3966:
	.cfi_startproc
	endbr64
	pushq	%rbp
	.cfi_def_cfa_offset 16
	.cfi_offset 6, -16
	movq	%rsp, %rbp
	.cfi_def_cfa_register 6
	subq	$48, %rsp
	movq	%rdi, -24(%rbp)
	movq	%rsi, -32(%rbp)
	movq	%rdx, -40(%rbp)
	movb	$1, -1(%rbp)
	movq	-40(%rbp), %rdx
	movq	-32(%rbp), %rcx
	movq	-24(%rbp), %rax
	movq	%rcx, %rsi
	movq	%rax, %rdi
	call	_ZNSt11__copy_moveILb0ELb1ESt26random_access_iterator_tagE8__copy_mIjEEPT_PKS3_S6_S4_
	leave
	.cfi_def_cfa 7, 8
	ret
	.cfi_endproc
.LFE3966:
	.size	_ZSt13__copy_move_aILb0EPjS0_ET1_T0_S2_S1_, .-_ZSt13__copy_move_aILb0EPjS0_ET1_T0_S2_S1_
	.section	.text._ZSt12__niter_wrapIPjET_RKS1_S1_,"axG",@progbits,_ZSt12__niter_wrapIPjET_RKS1_S1_,comdat
	.weak	_ZSt12__niter_wrapIPjET_RKS1_S1_
	.type	_ZSt12__niter_wrapIPjET_RKS1_S1_, @function
_ZSt12__niter_wrapIPjET_RKS1_S1_:
.LFB3967:
	.cfi_startproc
	endbr64
	pushq	%rbp
	.cfi_def_cfa_offset 16
	.cfi_offset 6, -16
	movq	%rsp, %rbp
	.cfi_def_cfa_register 6
	movq	%rdi, -8(%rbp)
	movq	%rsi, -16(%rbp)
	movq	-16(%rbp), %rax
	popq	%rbp
	.cfi_def_cfa 7, 8
	ret
	.cfi_endproc
.LFE3967:
	.size	_ZSt12__niter_wrapIPjET_RKS1_S1_, .-_ZSt12__niter_wrapIPjET_RKS1_S1_
	.section	.text._ZNSt20__uninitialized_copyILb1EE13__uninit_copyIPjS2_EET0_T_S4_S3_,"axG",@progbits,_ZNSt20__uninitialized_copyILb1EE13__uninit_copyIPjS2_EET0_T_S4_S3_,comdat
	.weak	_ZNSt20__uninitialized_copyILb1EE13__uninit_copyIPjS2_EET0_T_S4_S3_
	.type	_ZNSt20__uninitialized_copyILb1EE13__uninit_copyIPjS2_EET0_T_S4_S3_, @function
_ZNSt20__uninitialized_copyILb1EE13__uninit_copyIPjS2_EET0_T_S4_S3_:
.LFB3968:
	.cfi_startproc
	endbr64
	pushq	%rbp
	.cfi_def_cfa_offset 16
	.cfi_offset 6, -16
	movq	%rsp, %rbp
	.cfi_def_cfa_register 6
	subq	$32, %rsp
	movq	%rdi, -8(%rbp)
	movq	%rsi, -16(%rbp)
	movq	%rdx, -24(%rbp)
	movq	-24(%rbp), %rdx
	movq	-16(%rbp), %rcx
	movq	-8(%rbp), %rax
	movq	%rcx, %rsi
	movq	%rax, %rdi
	call	_ZSt4copyIPjS0_ET0_T_S2_S1_
	leave
	.cfi_def_cfa 7, 8
	ret
	.cfi_endproc
.LFE3968:
	.size	_ZNSt20__uninitialized_copyILb1EE13__uninit_copyIPjS2_EET0_T_S4_S3_, .-_ZNSt20__uninitialized_copyILb1EE13__uninit_copyIPjS2_EET0_T_S4_S3_
	.section	.text._ZNSt12_Vector_baseIjSaIjEE17_Vector_impl_data12_M_copy_dataERKS2_,"axG",@progbits,_ZNSt12_Vector_baseIjSaIjEE17_Vector_impl_data12_M_copy_dataERKS2_,comdat
	.align 2
	.weak	_ZNSt12_Vector_baseIjSaIjEE17_Vector_impl_data12_M_copy_dataERKS2_
	.type	_ZNSt12_Vector_baseIjSaIjEE17_Vector_impl_data12_M_copy_dataERKS2_, @function
_ZNSt12_Vector_baseIjSaIjEE17_Vector_impl_data12_M_copy_dataERKS2_:
.LFB3969:
	.cfi_startproc
	endbr64
	pushq	%rbp
	.cfi_def_cfa_offset 16
	.cfi_offset 6, -16
	movq	%rsp, %rbp
	.cfi_def_cfa_register 6
	movq	%rdi, -8(%rbp)
	movq	%rsi, -16(%rbp)
	movq	-16(%rbp), %rax
	movq	(%rax), %rdx
	movq	-8(%rbp), %rax
	movq	%rdx, (%rax)
	movq	-16(%rbp), %rax
	movq	8(%rax), %rdx
	movq	-8(%rbp), %rax
	movq	%rdx, 8(%rax)
	movq	-16(%rbp), %rax
	movq	16(%rax), %rdx
	movq	-8(%rbp), %rax
	movq	%rdx, 16(%rax)
	nop
	popq	%rbp
	.cfi_def_cfa 7, 8
	ret
	.cfi_endproc
.LFE3969:
	.size	_ZNSt12_Vector_baseIjSaIjEE17_Vector_impl_data12_M_copy_dataERKS2_, .-_ZNSt12_Vector_baseIjSaIjEE17_Vector_impl_data12_M_copy_dataERKS2_
	.section	.text._ZSt18__do_alloc_on_moveISaIjEEvRT_S2_St17integral_constantIbLb1EE,"axG",@progbits,_ZSt18__do_alloc_on_moveISaIjEEvRT_S2_St17integral_constantIbLb1EE,comdat
	.weak	_ZSt18__do_alloc_on_moveISaIjEEvRT_S2_St17integral_constantIbLb1EE
	.type	_ZSt18__do_alloc_on_moveISaIjEEvRT_S2_St17integral_constantIbLb1EE, @function
_ZSt18__do_alloc_on_moveISaIjEEvRT_S2_St17integral_constantIbLb1EE:
.LFB3970:
	.cfi_startproc
	endbr64
	pushq	%rbp
	.cfi_def_cfa_offset 16
	.cfi_offset 6, -16
	movq	%rsp, %rbp
	.cfi_def_cfa_register 6
	subq	$16, %rsp
	movq	%rdi, -8(%rbp)
	movq	%rsi, -16(%rbp)
	movq	-16(%rbp), %rax
	movq	%rax, %rdi
	call	_ZSt4moveIRSaIjEEONSt16remove_referenceIT_E4typeEOS3_
	nop
	leave
	.cfi_def_cfa 7, 8
	ret
	.cfi_endproc
.LFE3970:
	.size	_ZSt18__do_alloc_on_moveISaIjEEvRT_S2_St17integral_constantIbLb1EE, .-_ZSt18__do_alloc_on_moveISaIjEEvRT_S2_St17integral_constantIbLb1EE
	.section	.text._ZNSt6vectorIjSaIjEE14_S_do_relocateEPjS2_S2_RS0_St17integral_constantIbLb1EE,"axG",@progbits,_ZNSt6vectorIjSaIjEE14_S_do_relocateEPjS2_S2_RS0_St17integral_constantIbLb1EE,comdat
	.weak	_ZNSt6vectorIjSaIjEE14_S_do_relocateEPjS2_S2_RS0_St17integral_constantIbLb1EE
	.type	_ZNSt6vectorIjSaIjEE14_S_do_relocateEPjS2_S2_RS0_St17integral_constantIbLb1EE, @function
_ZNSt6vectorIjSaIjEE14_S_do_relocateEPjS2_S2_RS0_St17integral_constantIbLb1EE:
.LFB4000:
	.cfi_startproc
	endbr64
	pushq	%rbp
	.cfi_def_cfa_offset 16
	.cfi_offset 6, -16
	movq	%rsp, %rbp
	.cfi_def_cfa_register 6
	subq	$32, %rsp
	movq	%rdi, -8(%rbp)
	movq	%rsi, -16(%rbp)
	movq	%rdx, -24(%rbp)
	movq	%rcx, -32(%rbp)
	movq	-32(%rbp), %rcx
	movq	-24(%rbp), %rdx
	movq	-16(%rbp), %rsi
	movq	-8(%rbp), %rax
	movq	%rax, %rdi
	call	_ZSt12__relocate_aIPjS0_SaIjEET0_T_S3_S2_RT1_
	leave
	.cfi_def_cfa 7, 8
	ret
	.cfi_endproc
.LFE4000:
	.size	_ZNSt6vectorIjSaIjEE14_S_do_relocateEPjS2_S2_RS0_St17integral_constantIbLb1EE, .-_ZNSt6vectorIjSaIjEE14_S_do_relocateEPjS2_S2_RS0_St17integral_constantIbLb1EE
	.section	.text._ZN9__gnu_cxx13new_allocatorIjE7destroyIjEEvPT_,"axG",@progbits,_ZN9__gnu_cxx13new_allocatorIjE7destroyIjEEvPT_,comdat
	.align 2
	.weak	_ZN9__gnu_cxx13new_allocatorIjE7destroyIjEEvPT_
	.type	_ZN9__gnu_cxx13new_allocatorIjE7destroyIjEEvPT_, @function
_ZN9__gnu_cxx13new_allocatorIjE7destroyIjEEvPT_:
.LFB4001:
	.cfi_startproc
	endbr64
	pushq	%rbp
	.cfi_def_cfa_offset 16
	.cfi_offset 6, -16
	movq	%rsp, %rbp
	.cfi_def_cfa_register 6
	movq	%rdi, -8(%rbp)
	movq	%rsi, -16(%rbp)
	nop
	popq	%rbp
	.cfi_def_cfa 7, 8
	ret
	.cfi_endproc
.LFE4001:
	.size	_ZN9__gnu_cxx13new_allocatorIjE7destroyIjEEvPT_, .-_ZN9__gnu_cxx13new_allocatorIjE7destroyIjEEvPT_
	.section	.text._ZSt11__addressofI6BigIntEPT_RS1_,"axG",@progbits,_ZSt11__addressofI6BigIntEPT_RS1_,comdat
	.weak	_ZSt11__addressofI6BigIntEPT_RS1_
	.type	_ZSt11__addressofI6BigIntEPT_RS1_, @function
_ZSt11__addressofI6BigIntEPT_RS1_:
.LFB4002:
	.cfi_startproc
	endbr64
	pushq	%rbp
	.cfi_def_cfa_offset 16
	.cfi_offset 6, -16
	movq	%rsp, %rbp
	.cfi_def_cfa_register 6
	movq	%rdi, -8(%rbp)
	movq	-8(%rbp), %rax
	popq	%rbp
	.cfi_def_cfa 7, 8
	ret
	.cfi_endproc
.LFE4002:
	.size	_ZSt11__addressofI6BigIntEPT_RS1_, .-_ZSt11__addressofI6BigIntEPT_RS1_
	.section	.text._ZSt8_DestroyI6BigIntEvPT_,"axG",@progbits,_ZSt8_DestroyI6BigIntEvPT_,comdat
	.weak	_ZSt8_DestroyI6BigIntEvPT_
	.type	_ZSt8_DestroyI6BigIntEvPT_, @function
_ZSt8_DestroyI6BigIntEvPT_:
.LFB4003:
	.cfi_startproc
	endbr64
	pushq	%rbp
	.cfi_def_cfa_offset 16
	.cfi_offset 6, -16
	movq	%rsp, %rbp
	.cfi_def_cfa_register 6
	subq	$16, %rsp
	movq	%rdi, -8(%rbp)
	movq	-8(%rbp), %rax
	movq	%rax, %rdi
	call	_ZN6BigIntD1Ev
	nop
	leave
	.cfi_def_cfa 7, 8
	ret
	.cfi_endproc
.LFE4003:
	.size	_ZSt8_DestroyI6BigIntEvPT_, .-_ZSt8_DestroyI6BigIntEvPT_
	.section	.text._ZNSt16allocator_traitsISaIjEE8max_sizeERKS0_,"axG",@progbits,_ZNSt16allocator_traitsISaIjEE8max_sizeERKS0_,comdat
	.weak	_ZNSt16allocator_traitsISaIjEE8max_sizeERKS0_
	.type	_ZNSt16allocator_traitsISaIjEE8max_sizeERKS0_, @function
_ZNSt16allocator_traitsISaIjEE8max_sizeERKS0_:
.LFB4004:
	.cfi_startproc
	endbr64
	pushq	%rbp
	.cfi_def_cfa_offset 16
	.cfi_offset 6, -16
	movq	%rsp, %rbp
	.cfi_def_cfa_register 6
	subq	$16, %rsp
	movq	%rdi, -8(%rbp)
	movq	-8(%rbp), %rax
	movq	%rax, %rdi
	call	_ZNK9__gnu_cxx13new_allocatorIjE8max_sizeEv
	leave
	.cfi_def_cfa 7, 8
	ret
	.cfi_endproc
.LFE4004:
	.size	_ZNSt16allocator_traitsISaIjEE8max_sizeERKS0_, .-_ZNSt16allocator_traitsISaIjEE8max_sizeERKS0_
	.section	.text._ZSt3minImERKT_S2_S2_,"axG",@progbits,_ZSt3minImERKT_S2_S2_,comdat
	.weak	_ZSt3minImERKT_S2_S2_
	.type	_ZSt3minImERKT_S2_S2_, @function
_ZSt3minImERKT_S2_S2_:
.LFB4005:
	.cfi_startproc
	endbr64
	pushq	%rbp
	.cfi_def_cfa_offset 16
	.cfi_offset 6, -16
	movq	%rsp, %rbp
	.cfi_def_cfa_register 6
	movq	%rdi, -8(%rbp)
	movq	%rsi, -16(%rbp)
	movq	-16(%rbp), %rax
	movq	(%rax), %rdx
	movq	-8(%rbp), %rax
	movq	(%rax), %rax
	cmpq	%rax, %rdx
	jnb	.L412
	movq	-16(%rbp), %rax
	jmp	.L413
.L412:
	movq	-8(%rbp), %rax
.L413:
	popq	%rbp
	.cfi_def_cfa 7, 8
	ret
	.cfi_endproc
.LFE4005:
	.size	_ZSt3minImERKT_S2_S2_, .-_ZSt3minImERKT_S2_S2_
	.section	.text._ZSt12__niter_baseIPKjET_S2_,"axG",@progbits,_ZSt12__niter_baseIPKjET_S2_,comdat
	.weak	_ZSt12__niter_baseIPKjET_S2_
	.type	_ZSt12__niter_baseIPKjET_S2_, @function
_ZSt12__niter_baseIPKjET_S2_:
.LFB4006:
	.cfi_startproc
	endbr64
	pushq	%rbp
	.cfi_def_cfa_offset 16
	.cfi_offset 6, -16
	movq	%rsp, %rbp
	.cfi_def_cfa_register 6
	movq	%rdi, -8(%rbp)
	movq	-8(%rbp), %rax
	popq	%rbp
	.cfi_def_cfa 7, 8
	ret
	.cfi_endproc
.LFE4006:
	.size	_ZSt12__niter_baseIPKjET_S2_, .-_ZSt12__niter_baseIPKjET_S2_
	.section	.text._ZNSt20__uninitialized_copyILb1EE13__uninit_copyIPKjPjEET0_T_S6_S5_,"axG",@progbits,_ZNSt20__uninitialized_copyILb1EE13__uninit_copyIPKjPjEET0_T_S6_S5_,comdat
	.weak	_ZNSt20__uninitialized_copyILb1EE13__uninit_copyIPKjPjEET0_T_S6_S5_
	.type	_ZNSt20__uninitialized_copyILb1EE13__uninit_copyIPKjPjEET0_T_S6_S5_, @function
_ZNSt20__uninitialized_copyILb1EE13__uninit_copyIPKjPjEET0_T_S6_S5_:
.LFB4007:
	.cfi_startproc
	endbr64
	pushq	%rbp
	.cfi_def_cfa_offset 16
	.cfi_offset 6, -16
	movq	%rsp, %rbp
	.cfi_def_cfa_register 6
	subq	$32, %rsp
	movq	%rdi, -8(%rbp)
	movq	%rsi, -16(%rbp)
	movq	%rdx, -24(%rbp)
	movq	-24(%rbp), %rdx
	movq	-16(%rbp), %rcx
	movq	-8(%rbp), %rax
	movq	%rcx, %rsi
	movq	%rax, %rdi
	call	_ZSt4copyIPKjPjET0_T_S4_S3_
	leave
	.cfi_def_cfa 7, 8
	ret
	.cfi_endproc
.LFE4007:
	.size	_ZNSt20__uninitialized_copyILb1EE13__uninit_copyIPKjPjEET0_T_S6_S5_, .-_ZNSt20__uninitialized_copyILb1EE13__uninit_copyIPKjPjEET0_T_S6_S5_
	.section	.text._ZN9__gnu_cxx13new_allocatorIjE9constructIjJRKjEEEvPT_DpOT0_,"axG",@progbits,_ZN9__gnu_cxx13new_allocatorIjE9constructIjJRKjEEEvPT_DpOT0_,comdat
	.align 2
	.weak	_ZN9__gnu_cxx13new_allocatorIjE9constructIjJRKjEEEvPT_DpOT0_
	.type	_ZN9__gnu_cxx13new_allocatorIjE9constructIjJRKjEEEvPT_DpOT0_, @function
_ZN9__gnu_cxx13new_allocatorIjE9constructIjJRKjEEEvPT_DpOT0_:
.LFB4008:
	.cfi_startproc
	endbr64
	pushq	%rbp
	.cfi_def_cfa_offset 16
	.cfi_offset 6, -16
	movq	%rsp, %rbp
	.cfi_def_cfa_register 6
	pushq	%rbx
	subq	$40, %rsp
	.cfi_offset 3, -24
	movq	%rdi, -24(%rbp)
	movq	%rsi, -32(%rbp)
	movq	%rdx, -40(%rbp)
	movq	-40(%rbp), %rax
	movq	%rax, %rdi
	call	_ZSt7forwardIRKjEOT_RNSt16remove_referenceIS2_E4typeE
	movl	(%rax), %ebx
	movq	-32(%rbp), %rax
	movq	%rax, %rsi
	movl	$4, %edi
	call	_ZnwmPv
	movl	%ebx, (%rax)
	nop
	addq	$40, %rsp
	popq	%rbx
	popq	%rbp
	.cfi_def_cfa 7, 8
	ret
	.cfi_endproc
.LFE4008:
	.size	_ZN9__gnu_cxx13new_allocatorIjE9constructIjJRKjEEEvPT_DpOT0_, .-_ZN9__gnu_cxx13new_allocatorIjE9constructIjJRKjEEEvPT_DpOT0_
	.section	.text._ZNSt13move_iteratorIPjEC2ES0_,"axG",@progbits,_ZNSt13move_iteratorIPjEC5ES0_,comdat
	.align 2
	.weak	_ZNSt13move_iteratorIPjEC2ES0_
	.type	_ZNSt13move_iteratorIPjEC2ES0_, @function
_ZNSt13move_iteratorIPjEC2ES0_:
.LFB4010:
	.cfi_startproc
	endbr64
	pushq	%rbp
	.cfi_def_cfa_offset 16
	.cfi_offset 6, -16
	movq	%rsp, %rbp
	.cfi_def_cfa_register 6
	movq	%rdi, -8(%rbp)
	movq	%rsi, -16(%rbp)
	movq	-8(%rbp), %rax
	movq	-16(%rbp), %rdx
	movq	%rdx, (%rax)
	nop
	popq	%rbp
	.cfi_def_cfa 7, 8
	ret
	.cfi_endproc
.LFE4010:
	.size	_ZNSt13move_iteratorIPjEC2ES0_, .-_ZNSt13move_iteratorIPjEC2ES0_
	.weak	_ZNSt13move_iteratorIPjEC1ES0_
	.set	_ZNSt13move_iteratorIPjEC1ES0_,_ZNSt13move_iteratorIPjEC2ES0_
	.section	.text._ZSt18uninitialized_copyISt13move_iteratorIPjES1_ET0_T_S4_S3_,"axG",@progbits,_ZSt18uninitialized_copyISt13move_iteratorIPjES1_ET0_T_S4_S3_,comdat
	.weak	_ZSt18uninitialized_copyISt13move_iteratorIPjES1_ET0_T_S4_S3_
	.type	_ZSt18uninitialized_copyISt13move_iteratorIPjES1_ET0_T_S4_S3_, @function
_ZSt18uninitialized_copyISt13move_iteratorIPjES1_ET0_T_S4_S3_:
.LFB4012:
	.cfi_startproc
	endbr64
	pushq	%rbp
	.cfi_def_cfa_offset 16
	.cfi_offset 6, -16
	movq	%rsp, %rbp
	.cfi_def_cfa_register 6
	subq	$48, %rsp
	movq	%rdi, -24(%rbp)
	movq	%rsi, -32(%rbp)
	movq	%rdx, -40(%rbp)
	movb	$1, -1(%rbp)
	movq	-40(%rbp), %rdx
	movq	-32(%rbp), %rcx
	movq	-24(%rbp), %rax
	movq	%rcx, %rsi
	movq	%rax, %rdi
	call	_ZNSt20__uninitialized_copyILb1EE13__uninit_copyISt13move_iteratorIPjES3_EET0_T_S6_S5_
	leave
	.cfi_def_cfa 7, 8
	ret
	.cfi_endproc
.LFE4012:
	.size	_ZSt18uninitialized_copyISt13move_iteratorIPjES1_ET0_T_S4_S3_, .-_ZSt18uninitialized_copyISt13move_iteratorIPjES1_ET0_T_S4_S3_
	.section	.text._ZSt22__copy_move_backward_aILb1EPjS0_ET1_T0_S2_S1_,"axG",@progbits,_ZSt22__copy_move_backward_aILb1EPjS0_ET1_T0_S2_S1_,comdat
	.weak	_ZSt22__copy_move_backward_aILb1EPjS0_ET1_T0_S2_S1_
	.type	_ZSt22__copy_move_backward_aILb1EPjS0_ET1_T0_S2_S1_, @function
_ZSt22__copy_move_backward_aILb1EPjS0_ET1_T0_S2_S1_:
.LFB4013:
	.cfi_startproc
	endbr64
	pushq	%rbp
	.cfi_def_cfa_offset 16
	.cfi_offset 6, -16
	movq	%rsp, %rbp
	.cfi_def_cfa_register 6
	subq	$48, %rsp
	movq	%rdi, -24(%rbp)
	movq	%rsi, -32(%rbp)
	movq	%rdx, -40(%rbp)
	movb	$1, -1(%rbp)
	movq	-40(%rbp), %rdx
	movq	-32(%rbp), %rcx
	movq	-24(%rbp), %rax
	movq	%rcx, %rsi
	movq	%rax, %rdi
	call	_ZNSt20__copy_move_backwardILb1ELb1ESt26random_access_iterator_tagE13__copy_move_bIjEEPT_PKS3_S6_S4_
	leave
	.cfi_def_cfa 7, 8
	ret
	.cfi_endproc
.LFE4013:
	.size	_ZSt22__copy_move_backward_aILb1EPjS0_ET1_T0_S2_S1_, .-_ZSt22__copy_move_backward_aILb1EPjS0_ET1_T0_S2_S1_
	.section	.text._ZNSt22__uninitialized_fill_nILb1EE15__uninit_fill_nIPjmjEET_S3_T0_RKT1_,"axG",@progbits,_ZNSt22__uninitialized_fill_nILb1EE15__uninit_fill_nIPjmjEET_S3_T0_RKT1_,comdat
	.weak	_ZNSt22__uninitialized_fill_nILb1EE15__uninit_fill_nIPjmjEET_S3_T0_RKT1_
	.type	_ZNSt22__uninitialized_fill_nILb1EE15__uninit_fill_nIPjmjEET_S3_T0_RKT1_, @function
_ZNSt22__uninitialized_fill_nILb1EE15__uninit_fill_nIPjmjEET_S3_T0_RKT1_:
.LFB4014:
	.cfi_startproc
	endbr64
	pushq	%rbp
	.cfi_def_cfa_offset 16
	.cfi_offset 6, -16
	movq	%rsp, %rbp
	.cfi_def_cfa_register 6
	subq	$32, %rsp
	movq	%rdi, -8(%rbp)
	movq	%rsi, -16(%rbp)
	movq	%rdx, -24(%rbp)
	movq	-24(%rbp), %rdx
	movq	-16(%rbp), %rcx
	movq	-8(%rbp), %rax
	movq	%rcx, %rsi
	movq	%rax, %rdi
	call	_ZSt6fill_nIPjmjET_S1_T0_RKT1_
	leave
	.cfi_def_cfa 7, 8
	ret
	.cfi_endproc
.LFE4014:
	.size	_ZNSt22__uninitialized_fill_nILb1EE15__uninit_fill_nIPjmjEET_S3_T0_RKT1_, .-_ZNSt22__uninitialized_fill_nILb1EE15__uninit_fill_nIPjmjEET_S3_T0_RKT1_
	.section	.text._ZN9__gnu_cxx13new_allocatorIjE8allocateEmPKv,"axG",@progbits,_ZN9__gnu_cxx13new_allocatorIjE8allocateEmPKv,comdat
	.align 2
	.weak	_ZN9__gnu_cxx13new_allocatorIjE8allocateEmPKv
	.type	_ZN9__gnu_cxx13new_allocatorIjE8allocateEmPKv, @function
_ZN9__gnu_cxx13new_allocatorIjE8allocateEmPKv:
.LFB4015:
	.cfi_startproc
	endbr64
	pushq	%rbp
	.cfi_def_cfa_offset 16
	.cfi_offset 6, -16
	movq	%rsp, %rbp
	.cfi_def_cfa_register 6
	subq	$32, %rsp
	movq	%rdi, -8(%rbp)
	movq	%rsi, -16(%rbp)
	movq	%rdx, -24(%rbp)
	movq	-8(%rbp), %rax
	movq	%rax, %rdi
	call	_ZNK9__gnu_cxx13new_allocatorIjE8max_sizeEv
	cmpq	%rax, -16(%rbp)
	seta	%al
	testb	%al, %al
	je	.L427
	call	_ZSt17__throw_bad_allocv@PLT
.L427:
	movq	-16(%rbp), %rax
	salq	$2, %rax
	movq	%rax, %rdi
	call	_Znwm@PLT
	leave
	.cfi_def_cfa 7, 8
	ret
	.cfi_endproc
.LFE4015:
	.size	_ZN9__gnu_cxx13new_allocatorIjE8allocateEmPKv, .-_ZN9__gnu_cxx13new_allocatorIjE8allocateEmPKv
	.section	.text._ZNSt20__uninitialized_copyILb1EE13__uninit_copyIN9__gnu_cxx17__normal_iteratorIPKjSt6vectorIjSaIjEEEEPjEET0_T_SC_SB_,"axG",@progbits,_ZNSt20__uninitialized_copyILb1EE13__uninit_copyIN9__gnu_cxx17__normal_iteratorIPKjSt6vectorIjSaIjEEEEPjEET0_T_SC_SB_,comdat
	.weak	_ZNSt20__uninitialized_copyILb1EE13__uninit_copyIN9__gnu_cxx17__normal_iteratorIPKjSt6vectorIjSaIjEEEEPjEET0_T_SC_SB_
	.type	_ZNSt20__uninitialized_copyILb1EE13__uninit_copyIN9__gnu_cxx17__normal_iteratorIPKjSt6vectorIjSaIjEEEEPjEET0_T_SC_SB_, @function
_ZNSt20__uninitialized_copyILb1EE13__uninit_copyIN9__gnu_cxx17__normal_iteratorIPKjSt6vectorIjSaIjEEEEPjEET0_T_SC_SB_:
.LFB4016:
	.cfi_startproc
	endbr64
	pushq	%rbp
	.cfi_def_cfa_offset 16
	.cfi_offset 6, -16
	movq	%rsp, %rbp
	.cfi_def_cfa_register 6
	subq	$32, %rsp
	movq	%rdi, -8(%rbp)
	movq	%rsi, -16(%rbp)
	movq	%rdx, -24(%rbp)
	movq	-24(%rbp), %rdx
	movq	-16(%rbp), %rcx
	movq	-8(%rbp), %rax
	movq	%rcx, %rsi
	movq	%rax, %rdi
	call	_ZSt4copyIN9__gnu_cxx17__normal_iteratorIPKjSt6vectorIjSaIjEEEEPjET0_T_SA_S9_
	leave
	.cfi_def_cfa 7, 8
	ret
	.cfi_endproc
.LFE4016:
	.size	_ZNSt20__uninitialized_copyILb1EE13__uninit_copyIN9__gnu_cxx17__normal_iteratorIPKjSt6vectorIjSaIjEEEEPjEET0_T_SC_SB_, .-_ZNSt20__uninitialized_copyILb1EE13__uninit_copyIN9__gnu_cxx17__normal_iteratorIPKjSt6vectorIjSaIjEEEEPjEET0_T_SC_SB_
	.section	.text._ZNSt11__copy_moveILb0ELb1ESt26random_access_iterator_tagE8__copy_mIjEEPT_PKS3_S6_S4_,"axG",@progbits,_ZNSt11__copy_moveILb0ELb1ESt26random_access_iterator_tagE8__copy_mIjEEPT_PKS3_S6_S4_,comdat
	.weak	_ZNSt11__copy_moveILb0ELb1ESt26random_access_iterator_tagE8__copy_mIjEEPT_PKS3_S6_S4_
	.type	_ZNSt11__copy_moveILb0ELb1ESt26random_access_iterator_tagE8__copy_mIjEEPT_PKS3_S6_S4_, @function
_ZNSt11__copy_moveILb0ELb1ESt26random_access_iterator_tagE8__copy_mIjEEPT_PKS3_S6_S4_:
.LFB4017:
	.cfi_startproc
	endbr64
	pushq	%rbp
	.cfi_def_cfa_offset 16
	.cfi_offset 6, -16
	movq	%rsp, %rbp
	.cfi_def_cfa_register 6
	subq	$48, %rsp
	movq	%rdi, -24(%rbp)
	movq	%rsi, -32(%rbp)
	movq	%rdx, -40(%rbp)
	movq	-32(%rbp), %rax
	subq	-24(%rbp), %rax
	sarq	$2, %rax
	movq	%rax, -8(%rbp)
	cmpq	$0, -8(%rbp)
	je	.L432
	movq	-8(%rbp), %rax
	leaq	0(,%rax,4), %rdx
	movq	-24(%rbp), %rcx
	movq	-40(%rbp), %rax
	movq	%rcx, %rsi
	movq	%rax, %rdi
	call	memmove@PLT
.L432:
	movq	-8(%rbp), %rax
	leaq	0(,%rax,4), %rdx
	movq	-40(%rbp), %rax
	addq	%rdx, %rax
	leave
	.cfi_def_cfa 7, 8
	ret
	.cfi_endproc
.LFE4017:
	.size	_ZNSt11__copy_moveILb0ELb1ESt26random_access_iterator_tagE8__copy_mIjEEPT_PKS3_S6_S4_, .-_ZNSt11__copy_moveILb0ELb1ESt26random_access_iterator_tagE8__copy_mIjEEPT_PKS3_S6_S4_
	.section	.text._ZSt4moveIRSaIjEEONSt16remove_referenceIT_E4typeEOS3_,"axG",@progbits,_ZSt4moveIRSaIjEEONSt16remove_referenceIT_E4typeEOS3_,comdat
	.weak	_ZSt4moveIRSaIjEEONSt16remove_referenceIT_E4typeEOS3_
	.type	_ZSt4moveIRSaIjEEONSt16remove_referenceIT_E4typeEOS3_, @function
_ZSt4moveIRSaIjEEONSt16remove_referenceIT_E4typeEOS3_:
.LFB4018:
	.cfi_startproc
	endbr64
	pushq	%rbp
	.cfi_def_cfa_offset 16
	.cfi_offset 6, -16
	movq	%rsp, %rbp
	.cfi_def_cfa_register 6
	movq	%rdi, -8(%rbp)
	movq	-8(%rbp), %rax
	popq	%rbp
	.cfi_def_cfa 7, 8
	ret
	.cfi_endproc
.LFE4018:
	.size	_ZSt4moveIRSaIjEEONSt16remove_referenceIT_E4typeEOS3_, .-_ZSt4moveIRSaIjEEONSt16remove_referenceIT_E4typeEOS3_
	.section	.text._ZSt12__relocate_aIPjS0_SaIjEET0_T_S3_S2_RT1_,"axG",@progbits,_ZSt12__relocate_aIPjS0_SaIjEET0_T_S3_S2_RT1_,comdat
	.weak	_ZSt12__relocate_aIPjS0_SaIjEET0_T_S3_S2_RT1_
	.type	_ZSt12__relocate_aIPjS0_SaIjEET0_T_S3_S2_RT1_, @function
_ZSt12__relocate_aIPjS0_SaIjEET0_T_S3_S2_RT1_:
.LFB4046:
	.cfi_startproc
	endbr64
	pushq	%rbp
	.cfi_def_cfa_offset 16
	.cfi_offset 6, -16
	movq	%rsp, %rbp
	.cfi_def_cfa_register 6
	pushq	%r12
	pushq	%rbx
	subq	$32, %rsp
	.cfi_offset 12, -24
	.cfi_offset 3, -32
	movq	%rdi, -24(%rbp)
	movq	%rsi, -32(%rbp)
	movq	%rdx, -40(%rbp)
	movq	%rcx, -48(%rbp)
	movq	-40(%rbp), %rax
	movq	%rax, %rdi
	call	_ZSt12__niter_baseIPjET_S1_
	movq	%rax, %r12
	movq	-32(%rbp), %rax
	movq	%rax, %rdi
	call	_ZSt12__niter_baseIPjET_S1_
	movq	%rax, %rbx
	movq	-24(%rbp), %rax
	movq	%rax, %rdi
	call	_ZSt12__niter_baseIPjET_S1_
	movq	%rax, %rdi
	movq	-48(%rbp), %rax
	movq	%rax, %rcx
	movq	%r12, %rdx
	movq	%rbx, %rsi
	call	_ZSt14__relocate_a_1IjjENSt9enable_ifIXsrSt24__is_bitwise_relocatableIT_vE5valueEPS2_E4typeES4_S4_S4_RSaIT0_E
	addq	$32, %rsp
	popq	%rbx
	popq	%r12
	popq	%rbp
	.cfi_def_cfa 7, 8
	ret
	.cfi_endproc
.LFE4046:
	.size	_ZSt12__relocate_aIPjS0_SaIjEET0_T_S3_S2_RT1_, .-_ZSt12__relocate_aIPjS0_SaIjEET0_T_S3_S2_RT1_
	.section	.text._ZNK9__gnu_cxx13new_allocatorIjE8max_sizeEv,"axG",@progbits,_ZNK9__gnu_cxx13new_allocatorIjE8max_sizeEv,comdat
	.align 2
	.weak	_ZNK9__gnu_cxx13new_allocatorIjE8max_sizeEv
	.type	_ZNK9__gnu_cxx13new_allocatorIjE8max_sizeEv, @function
_ZNK9__gnu_cxx13new_allocatorIjE8max_sizeEv:
.LFB4047:
	.cfi_startproc
	endbr64
	pushq	%rbp
	.cfi_def_cfa_offset 16
	.cfi_offset 6, -16
	movq	%rsp, %rbp
	.cfi_def_cfa_register 6
	movq	%rdi, -8(%rbp)
	movabsq	$2305843009213693951, %rax
	popq	%rbp
	.cfi_def_cfa 7, 8
	ret
	.cfi_endproc
.LFE4047:
	.size	_ZNK9__gnu_cxx13new_allocatorIjE8max_sizeEv, .-_ZNK9__gnu_cxx13new_allocatorIjE8max_sizeEv
	.section	.text._ZNSt20__uninitialized_copyILb1EE13__uninit_copyISt13move_iteratorIPjES3_EET0_T_S6_S5_,"axG",@progbits,_ZNSt20__uninitialized_copyILb1EE13__uninit_copyISt13move_iteratorIPjES3_EET0_T_S6_S5_,comdat
	.weak	_ZNSt20__uninitialized_copyILb1EE13__uninit_copyISt13move_iteratorIPjES3_EET0_T_S6_S5_
	.type	_ZNSt20__uninitialized_copyILb1EE13__uninit_copyISt13move_iteratorIPjES3_EET0_T_S6_S5_, @function
_ZNSt20__uninitialized_copyILb1EE13__uninit_copyISt13move_iteratorIPjES3_EET0_T_S6_S5_:
.LFB4048:
	.cfi_startproc
	endbr64
	pushq	%rbp
	.cfi_def_cfa_offset 16
	.cfi_offset 6, -16
	movq	%rsp, %rbp
	.cfi_def_cfa_register 6
	subq	$32, %rsp
	movq	%rdi, -8(%rbp)
	movq	%rsi, -16(%rbp)
	movq	%rdx, -24(%rbp)
	movq	-24(%rbp), %rdx
	movq	-16(%rbp), %rcx
	movq	-8(%rbp), %rax
	movq	%rcx, %rsi
	movq	%rax, %rdi
	call	_ZSt4copyISt13move_iteratorIPjES1_ET0_T_S4_S3_
	leave
	.cfi_def_cfa 7, 8
	ret
	.cfi_endproc
.LFE4048:
	.size	_ZNSt20__uninitialized_copyILb1EE13__uninit_copyISt13move_iteratorIPjES3_EET0_T_S6_S5_, .-_ZNSt20__uninitialized_copyILb1EE13__uninit_copyISt13move_iteratorIPjES3_EET0_T_S6_S5_
	.section	.text._ZNSt20__copy_move_backwardILb1ELb1ESt26random_access_iterator_tagE13__copy_move_bIjEEPT_PKS3_S6_S4_,"axG",@progbits,_ZNSt20__copy_move_backwardILb1ELb1ESt26random_access_iterator_tagE13__copy_move_bIjEEPT_PKS3_S6_S4_,comdat
	.weak	_ZNSt20__copy_move_backwardILb1ELb1ESt26random_access_iterator_tagE13__copy_move_bIjEEPT_PKS3_S6_S4_
	.type	_ZNSt20__copy_move_backwardILb1ELb1ESt26random_access_iterator_tagE13__copy_move_bIjEEPT_PKS3_S6_S4_, @function
_ZNSt20__copy_move_backwardILb1ELb1ESt26random_access_iterator_tagE13__copy_move_bIjEEPT_PKS3_S6_S4_:
.LFB4049:
	.cfi_startproc
	endbr64
	pushq	%rbp
	.cfi_def_cfa_offset 16
	.cfi_offset 6, -16
	movq	%rsp, %rbp
	.cfi_def_cfa_register 6
	subq	$48, %rsp
	movq	%rdi, -24(%rbp)
	movq	%rsi, -32(%rbp)
	movq	%rdx, -40(%rbp)
	movq	-32(%rbp), %rax
	subq	-24(%rbp), %rax
	sarq	$2, %rax
	movq	%rax, -8(%rbp)
	cmpq	$0, -8(%rbp)
	je	.L443
	movq	-8(%rbp), %rax
	leaq	0(,%rax,4), %rdx
	movq	-8(%rbp), %rax
	salq	$2, %rax
	negq	%rax
	movq	%rax, %rcx
	movq	-40(%rbp), %rax
	addq	%rax, %rcx
	movq	-24(%rbp), %rax
	movq	%rax, %rsi
	movq	%rcx, %rdi
	call	memmove@PLT
.L443:
	movq	-8(%rbp), %rax
	salq	$2, %rax
	negq	%rax
	movq	%rax, %rdx
	movq	-40(%rbp), %rax
	addq	%rdx, %rax
	leave
	.cfi_def_cfa 7, 8
	ret
	.cfi_endproc
.LFE4049:
	.size	_ZNSt20__copy_move_backwardILb1ELb1ESt26random_access_iterator_tagE13__copy_move_bIjEEPT_PKS3_S6_S4_, .-_ZNSt20__copy_move_backwardILb1ELb1ESt26random_access_iterator_tagE13__copy_move_bIjEEPT_PKS3_S6_S4_
	.section	.text._ZSt6fill_nIPjmjET_S1_T0_RKT1_,"axG",@progbits,_ZSt6fill_nIPjmjET_S1_T0_RKT1_,comdat
	.weak	_ZSt6fill_nIPjmjET_S1_T0_RKT1_
	.type	_ZSt6fill_nIPjmjET_S1_T0_RKT1_, @function
_ZSt6fill_nIPjmjET_S1_T0_RKT1_:
.LFB4050:
	.cfi_startproc
	endbr64
	pushq	%rbp
	.cfi_def_cfa_offset 16
	.cfi_offset 6, -16
	movq	%rsp, %rbp
	.cfi_def_cfa_register 6
	subq	$32, %rsp
	movq	%rdi, -8(%rbp)
	movq	%rsi, -16(%rbp)
	movq	%rdx, -24(%rbp)
	movq	-8(%rbp), %rax
	movq	%rax, %rdi
	call	_ZSt12__niter_baseIPjET_S1_
	movq	%rax, %rcx
	movq	-24(%rbp), %rdx
	movq	-16(%rbp), %rax
	movq	%rax, %rsi
	movq	%rcx, %rdi
	call	_ZSt10__fill_n_aIPjmjEN9__gnu_cxx11__enable_ifIXsrSt11__is_scalarIT1_E7__valueET_E6__typeES6_T0_RKS4_
	movq	%rax, %rdx
	leaq	-8(%rbp), %rax
	movq	%rdx, %rsi
	movq	%rax, %rdi
	call	_ZSt12__niter_wrapIPjET_RKS1_S1_
	leave
	.cfi_def_cfa 7, 8
	ret
	.cfi_endproc
.LFE4050:
	.size	_ZSt6fill_nIPjmjET_S1_T0_RKT1_, .-_ZSt6fill_nIPjmjET_S1_T0_RKT1_
	.section	.text._ZSt4copyIN9__gnu_cxx17__normal_iteratorIPKjSt6vectorIjSaIjEEEEPjET0_T_SA_S9_,"axG",@progbits,_ZSt4copyIN9__gnu_cxx17__normal_iteratorIPKjSt6vectorIjSaIjEEEEPjET0_T_SA_S9_,comdat
	.weak	_ZSt4copyIN9__gnu_cxx17__normal_iteratorIPKjSt6vectorIjSaIjEEEEPjET0_T_SA_S9_
	.type	_ZSt4copyIN9__gnu_cxx17__normal_iteratorIPKjSt6vectorIjSaIjEEEEPjET0_T_SA_S9_, @function
_ZSt4copyIN9__gnu_cxx17__normal_iteratorIPKjSt6vectorIjSaIjEEEEPjET0_T_SA_S9_:
.LFB4051:
	.cfi_startproc
	endbr64
	pushq	%rbp
	.cfi_def_cfa_offset 16
	.cfi_offset 6, -16
	movq	%rsp, %rbp
	.cfi_def_cfa_register 6
	pushq	%rbx
	subq	$40, %rsp
	.cfi_offset 3, -24
	movq	%rdi, -24(%rbp)
	movq	%rsi, -32(%rbp)
	movq	%rdx, -40(%rbp)
	movq	-32(%rbp), %rax
	movq	%rax, %rdi
	call	_ZSt12__miter_baseIN9__gnu_cxx17__normal_iteratorIPKjSt6vectorIjSaIjEEEEET_S8_
	movq	%rax, %rbx
	movq	-24(%rbp), %rax
	movq	%rax, %rdi
	call	_ZSt12__miter_baseIN9__gnu_cxx17__normal_iteratorIPKjSt6vectorIjSaIjEEEEET_S8_
	movq	%rax, %rcx
	movq	-40(%rbp), %rax
	movq	%rax, %rdx
	movq	%rbx, %rsi
	movq	%rcx, %rdi
	call	_ZSt14__copy_move_a2ILb0EN9__gnu_cxx17__normal_iteratorIPKjSt6vectorIjSaIjEEEEPjET1_T0_SA_S9_
	addq	$40, %rsp
	popq	%rbx
	popq	%rbp
	.cfi_def_cfa 7, 8
	ret
	.cfi_endproc
.LFE4051:
	.size	_ZSt4copyIN9__gnu_cxx17__normal_iteratorIPKjSt6vectorIjSaIjEEEEPjET0_T_SA_S9_, .-_ZSt4copyIN9__gnu_cxx17__normal_iteratorIPKjSt6vectorIjSaIjEEEEPjET0_T_SA_S9_
	.section	.text._ZSt14__relocate_a_1IjjENSt9enable_ifIXsrSt24__is_bitwise_relocatableIT_vE5valueEPS2_E4typeES4_S4_S4_RSaIT0_E,"axG",@progbits,_ZSt14__relocate_a_1IjjENSt9enable_ifIXsrSt24__is_bitwise_relocatableIT_vE5valueEPS2_E4typeES4_S4_S4_RSaIT0_E,comdat
	.weak	_ZSt14__relocate_a_1IjjENSt9enable_ifIXsrSt24__is_bitwise_relocatableIT_vE5valueEPS2_E4typeES4_S4_S4_RSaIT0_E
	.type	_ZSt14__relocate_a_1IjjENSt9enable_ifIXsrSt24__is_bitwise_relocatableIT_vE5valueEPS2_E4typeES4_S4_S4_RSaIT0_E, @function
_ZSt14__relocate_a_1IjjENSt9enable_ifIXsrSt24__is_bitwise_relocatableIT_vE5valueEPS2_E4typeES4_S4_S4_RSaIT0_E:
.LFB4062:
	.cfi_startproc
	endbr64
	pushq	%rbp
	.cfi_def_cfa_offset 16
	.cfi_offset 6, -16
	movq	%rsp, %rbp
	.cfi_def_cfa_register 6
	subq	$48, %rsp
	movq	%rdi, -24(%rbp)
	movq	%rsi, -32(%rbp)
	movq	%rdx, -40(%rbp)
	movq	%rcx, -48(%rbp)
	movq	-32(%rbp), %rax
	subq	-24(%rbp), %rax
	sarq	$2, %rax
	movq	%rax, -8(%rbp)
	cmpq	$0, -8(%rbp)
	jle	.L450
	movq	-8(%rbp), %rax
	leaq	0(,%rax,4), %rdx
	movq	-24(%rbp), %rcx
	movq	-40(%rbp), %rax
	movq	%rcx, %rsi
	movq	%rax, %rdi
	call	memmove@PLT
.L450:
	movq	-8(%rbp), %rax
	leaq	0(,%rax,4), %rdx
	movq	-40(%rbp), %rax
	addq	%rdx, %rax
	leave
	.cfi_def_cfa 7, 8
	ret
	.cfi_endproc
.LFE4062:
	.size	_ZSt14__relocate_a_1IjjENSt9enable_ifIXsrSt24__is_bitwise_relocatableIT_vE5valueEPS2_E4typeES4_S4_S4_RSaIT0_E, .-_ZSt14__relocate_a_1IjjENSt9enable_ifIXsrSt24__is_bitwise_relocatableIT_vE5valueEPS2_E4typeES4_S4_S4_RSaIT0_E
	.section	.text._ZSt4copyISt13move_iteratorIPjES1_ET0_T_S4_S3_,"axG",@progbits,_ZSt4copyISt13move_iteratorIPjES1_ET0_T_S4_S3_,comdat
	.weak	_ZSt4copyISt13move_iteratorIPjES1_ET0_T_S4_S3_
	.type	_ZSt4copyISt13move_iteratorIPjES1_ET0_T_S4_S3_, @function
_ZSt4copyISt13move_iteratorIPjES1_ET0_T_S4_S3_:
.LFB4063:
	.cfi_startproc
	endbr64
	pushq	%rbp
	.cfi_def_cfa_offset 16
	.cfi_offset 6, -16
	movq	%rsp, %rbp
	.cfi_def_cfa_register 6
	pushq	%rbx
	subq	$40, %rsp
	.cfi_offset 3, -24
	movq	%rdi, -24(%rbp)
	movq	%rsi, -32(%rbp)
	movq	%rdx, -40(%rbp)
	movq	-32(%rbp), %rax
	movq	%rax, %rdi
	call	_ZSt12__miter_baseIPjEDTcl12__miter_basecldtfp_4baseEEESt13move_iteratorIT_E
	movq	%rax, %rbx
	movq	-24(%rbp), %rax
	movq	%rax, %rdi
	call	_ZSt12__miter_baseIPjEDTcl12__miter_basecldtfp_4baseEEESt13move_iteratorIT_E
	movq	%rax, %rcx
	movq	-40(%rbp), %rax
	movq	%rax, %rdx
	movq	%rbx, %rsi
	movq	%rcx, %rdi
	call	_ZSt14__copy_move_a2ILb1EPjS0_ET1_T0_S2_S1_
	addq	$40, %rsp
	popq	%rbx
	popq	%rbp
	.cfi_def_cfa 7, 8
	ret
	.cfi_endproc
.LFE4063:
	.size	_ZSt4copyISt13move_iteratorIPjES1_ET0_T_S4_S3_, .-_ZSt4copyISt13move_iteratorIPjES1_ET0_T_S4_S3_
	.section	.text._ZSt10__fill_n_aIPjmjEN9__gnu_cxx11__enable_ifIXsrSt11__is_scalarIT1_E7__valueET_E6__typeES6_T0_RKS4_,"axG",@progbits,_ZSt10__fill_n_aIPjmjEN9__gnu_cxx11__enable_ifIXsrSt11__is_scalarIT1_E7__valueET_E6__typeES6_T0_RKS4_,comdat
	.weak	_ZSt10__fill_n_aIPjmjEN9__gnu_cxx11__enable_ifIXsrSt11__is_scalarIT1_E7__valueET_E6__typeES6_T0_RKS4_
	.type	_ZSt10__fill_n_aIPjmjEN9__gnu_cxx11__enable_ifIXsrSt11__is_scalarIT1_E7__valueET_E6__typeES6_T0_RKS4_, @function
_ZSt10__fill_n_aIPjmjEN9__gnu_cxx11__enable_ifIXsrSt11__is_scalarIT1_E7__valueET_E6__typeES6_T0_RKS4_:
.LFB4064:
	.cfi_startproc
	endbr64
	pushq	%rbp
	.cfi_def_cfa_offset 16
	.cfi_offset 6, -16
	movq	%rsp, %rbp
	.cfi_def_cfa_register 6
	movq	%rdi, -24(%rbp)
	movq	%rsi, -32(%rbp)
	movq	%rdx, -40(%rbp)
	movq	-40(%rbp), %rax
	movl	(%rax), %eax
	movl	%eax, -12(%rbp)
	movq	-32(%rbp), %rax
	movq	%rax, -8(%rbp)
.L456:
	cmpq	$0, -8(%rbp)
	je	.L455
	movq	-24(%rbp), %rax
	movl	-12(%rbp), %edx
	movl	%edx, (%rax)
	subq	$1, -8(%rbp)
	addq	$4, -24(%rbp)
	jmp	.L456
.L455:
	movq	-24(%rbp), %rax
	popq	%rbp
	.cfi_def_cfa 7, 8
	ret
	.cfi_endproc
.LFE4064:
	.size	_ZSt10__fill_n_aIPjmjEN9__gnu_cxx11__enable_ifIXsrSt11__is_scalarIT1_E7__valueET_E6__typeES6_T0_RKS4_, .-_ZSt10__fill_n_aIPjmjEN9__gnu_cxx11__enable_ifIXsrSt11__is_scalarIT1_E7__valueET_E6__typeES6_T0_RKS4_
	.section	.text._ZSt14__copy_move_a2ILb0EN9__gnu_cxx17__normal_iteratorIPKjSt6vectorIjSaIjEEEEPjET1_T0_SA_S9_,"axG",@progbits,_ZSt14__copy_move_a2ILb0EN9__gnu_cxx17__normal_iteratorIPKjSt6vectorIjSaIjEEEEPjET1_T0_SA_S9_,comdat
	.weak	_ZSt14__copy_move_a2ILb0EN9__gnu_cxx17__normal_iteratorIPKjSt6vectorIjSaIjEEEEPjET1_T0_SA_S9_
	.type	_ZSt14__copy_move_a2ILb0EN9__gnu_cxx17__normal_iteratorIPKjSt6vectorIjSaIjEEEEPjET1_T0_SA_S9_, @function
_ZSt14__copy_move_a2ILb0EN9__gnu_cxx17__normal_iteratorIPKjSt6vectorIjSaIjEEEEPjET1_T0_SA_S9_:
.LFB4065:
	.cfi_startproc
	endbr64
	pushq	%rbp
	.cfi_def_cfa_offset 16
	.cfi_offset 6, -16
	movq	%rsp, %rbp
	.cfi_def_cfa_register 6
	pushq	%r12
	pushq	%rbx
	subq	$32, %rsp
	.cfi_offset 12, -24
	.cfi_offset 3, -32
	movq	%rdi, -24(%rbp)
	movq	%rsi, -32(%rbp)
	movq	%rdx, -40(%rbp)
	movq	-40(%rbp), %rax
	movq	%rax, %rdi
	call	_ZSt12__niter_baseIPjET_S1_
	movq	%rax, %r12
	movq	-32(%rbp), %rax
	movq	%rax, %rdi
	call	_ZSt12__niter_baseIPKjSt6vectorIjSaIjEEET_N9__gnu_cxx17__normal_iteratorIS5_T0_EE
	movq	%rax, %rbx
	movq	-24(%rbp), %rax
	movq	%rax, %rdi
	call	_ZSt12__niter_baseIPKjSt6vectorIjSaIjEEET_N9__gnu_cxx17__normal_iteratorIS5_T0_EE
	movq	%r12, %rdx
	movq	%rbx, %rsi
	movq	%rax, %rdi
	call	_ZSt13__copy_move_aILb0EPKjPjET1_T0_S4_S3_
	movq	%rax, %rdx
	leaq	-40(%rbp), %rax
	movq	%rdx, %rsi
	movq	%rax, %rdi
	call	_ZSt12__niter_wrapIPjET_RKS1_S1_
	addq	$32, %rsp
	popq	%rbx
	popq	%r12
	popq	%rbp
	.cfi_def_cfa 7, 8
	ret
	.cfi_endproc
.LFE4065:
	.size	_ZSt14__copy_move_a2ILb0EN9__gnu_cxx17__normal_iteratorIPKjSt6vectorIjSaIjEEEEPjET1_T0_SA_S9_, .-_ZSt14__copy_move_a2ILb0EN9__gnu_cxx17__normal_iteratorIPKjSt6vectorIjSaIjEEEEPjET1_T0_SA_S9_
	.section	.text._ZSt12__miter_baseIPjEDTcl12__miter_basecldtfp_4baseEEESt13move_iteratorIT_E,"axG",@progbits,_ZSt12__miter_baseIPjEDTcl12__miter_basecldtfp_4baseEEESt13move_iteratorIT_E,comdat
	.weak	_ZSt12__miter_baseIPjEDTcl12__miter_basecldtfp_4baseEEESt13move_iteratorIT_E
	.type	_ZSt12__miter_baseIPjEDTcl12__miter_basecldtfp_4baseEEESt13move_iteratorIT_E, @function
_ZSt12__miter_baseIPjEDTcl12__miter_basecldtfp_4baseEEESt13move_iteratorIT_E:
.LFB4068:
	.cfi_startproc
	endbr64
	pushq	%rbp
	.cfi_def_cfa_offset 16
	.cfi_offset 6, -16
	movq	%rsp, %rbp
	.cfi_def_cfa_register 6
	subq	$16, %rsp
	movq	%rdi, -8(%rbp)
	leaq	-8(%rbp), %rax
	movq	%rax, %rdi
	call	_ZNKSt13move_iteratorIPjE4baseEv
	movq	%rax, %rdi
	call	_ZSt12__miter_baseIPjET_S1_
	leave
	.cfi_def_cfa 7, 8
	ret
	.cfi_endproc
.LFE4068:
	.size	_ZSt12__miter_baseIPjEDTcl12__miter_basecldtfp_4baseEEESt13move_iteratorIT_E, .-_ZSt12__miter_baseIPjEDTcl12__miter_basecldtfp_4baseEEESt13move_iteratorIT_E
	.section	.text._ZSt14__copy_move_a2ILb1EPjS0_ET1_T0_S2_S1_,"axG",@progbits,_ZSt14__copy_move_a2ILb1EPjS0_ET1_T0_S2_S1_,comdat
	.weak	_ZSt14__copy_move_a2ILb1EPjS0_ET1_T0_S2_S1_
	.type	_ZSt14__copy_move_a2ILb1EPjS0_ET1_T0_S2_S1_, @function
_ZSt14__copy_move_a2ILb1EPjS0_ET1_T0_S2_S1_:
.LFB4069:
	.cfi_startproc
	endbr64
	pushq	%rbp
	.cfi_def_cfa_offset 16
	.cfi_offset 6, -16
	movq	%rsp, %rbp
	.cfi_def_cfa_register 6
	pushq	%r12
	pushq	%rbx
	subq	$32, %rsp
	.cfi_offset 12, -24
	.cfi_offset 3, -32
	movq	%rdi, -24(%rbp)
	movq	%rsi, -32(%rbp)
	movq	%rdx, -40(%rbp)
	movq	-40(%rbp), %rax
	movq	%rax, %rdi
	call	_ZSt12__niter_baseIPjET_S1_
	movq	%rax, %r12
	movq	-32(%rbp), %rax
	movq	%rax, %rdi
	call	_ZSt12__niter_baseIPjET_S1_
	movq	%rax, %rbx
	movq	-24(%rbp), %rax
	movq	%rax, %rdi
	call	_ZSt12__niter_baseIPjET_S1_
	movq	%r12, %rdx
	movq	%rbx, %rsi
	movq	%rax, %rdi
	call	_ZSt13__copy_move_aILb1EPjS0_ET1_T0_S2_S1_
	movq	%rax, %rdx
	leaq	-40(%rbp), %rax
	movq	%rdx, %rsi
	movq	%rax, %rdi
	call	_ZSt12__niter_wrapIPjET_RKS1_S1_
	addq	$32, %rsp
	popq	%rbx
	popq	%r12
	popq	%rbp
	.cfi_def_cfa 7, 8
	ret
	.cfi_endproc
.LFE4069:
	.size	_ZSt14__copy_move_a2ILb1EPjS0_ET1_T0_S2_S1_, .-_ZSt14__copy_move_a2ILb1EPjS0_ET1_T0_S2_S1_
	.section	.text._ZNKSt13move_iteratorIPjE4baseEv,"axG",@progbits,_ZNKSt13move_iteratorIPjE4baseEv,comdat
	.align 2
	.weak	_ZNKSt13move_iteratorIPjE4baseEv
	.type	_ZNKSt13move_iteratorIPjE4baseEv, @function
_ZNKSt13move_iteratorIPjE4baseEv:
.LFB4070:
	.cfi_startproc
	endbr64
	pushq	%rbp
	.cfi_def_cfa_offset 16
	.cfi_offset 6, -16
	movq	%rsp, %rbp
	.cfi_def_cfa_register 6
	movq	%rdi, -8(%rbp)
	movq	-8(%rbp), %rax
	movq	(%rax), %rax
	popq	%rbp
	.cfi_def_cfa 7, 8
	ret
	.cfi_endproc
.LFE4070:
	.size	_ZNKSt13move_iteratorIPjE4baseEv, .-_ZNKSt13move_iteratorIPjE4baseEv
	.section	.text._ZSt13__copy_move_aILb1EPjS0_ET1_T0_S2_S1_,"axG",@progbits,_ZSt13__copy_move_aILb1EPjS0_ET1_T0_S2_S1_,comdat
	.weak	_ZSt13__copy_move_aILb1EPjS0_ET1_T0_S2_S1_
	.type	_ZSt13__copy_move_aILb1EPjS0_ET1_T0_S2_S1_, @function
_ZSt13__copy_move_aILb1EPjS0_ET1_T0_S2_S1_:
.LFB4071:
	.cfi_startproc
	endbr64
	pushq	%rbp
	.cfi_def_cfa_offset 16
	.cfi_offset 6, -16
	movq	%rsp, %rbp
	.cfi_def_cfa_register 6
	subq	$48, %rsp
	movq	%rdi, -24(%rbp)
	movq	%rsi, -32(%rbp)
	movq	%rdx, -40(%rbp)
	movb	$1, -1(%rbp)
	movq	-40(%rbp), %rdx
	movq	-32(%rbp), %rcx
	movq	-24(%rbp), %rax
	movq	%rcx, %rsi
	movq	%rax, %rdi
	call	_ZNSt11__copy_moveILb1ELb1ESt26random_access_iterator_tagE8__copy_mIjEEPT_PKS3_S6_S4_
	leave
	.cfi_def_cfa 7, 8
	ret
	.cfi_endproc
.LFE4071:
	.size	_ZSt13__copy_move_aILb1EPjS0_ET1_T0_S2_S1_, .-_ZSt13__copy_move_aILb1EPjS0_ET1_T0_S2_S1_
	.section	.text._ZNSt11__copy_moveILb1ELb1ESt26random_access_iterator_tagE8__copy_mIjEEPT_PKS3_S6_S4_,"axG",@progbits,_ZNSt11__copy_moveILb1ELb1ESt26random_access_iterator_tagE8__copy_mIjEEPT_PKS3_S6_S4_,comdat
	.weak	_ZNSt11__copy_moveILb1ELb1ESt26random_access_iterator_tagE8__copy_mIjEEPT_PKS3_S6_S4_
	.type	_ZNSt11__copy_moveILb1ELb1ESt26random_access_iterator_tagE8__copy_mIjEEPT_PKS3_S6_S4_, @function
_ZNSt11__copy_moveILb1ELb1ESt26random_access_iterator_tagE8__copy_mIjEEPT_PKS3_S6_S4_:
.LFB4072:
	.cfi_startproc
	endbr64
	pushq	%rbp
	.cfi_def_cfa_offset 16
	.cfi_offset 6, -16
	movq	%rsp, %rbp
	.cfi_def_cfa_register 6
	subq	$48, %rsp
	movq	%rdi, -24(%rbp)
	movq	%rsi, -32(%rbp)
	movq	%rdx, -40(%rbp)
	movq	-32(%rbp), %rax
	subq	-24(%rbp), %rax
	sarq	$2, %rax
	movq	%rax, -8(%rbp)
	cmpq	$0, -8(%rbp)
	je	.L469
	movq	-8(%rbp), %rax
	leaq	0(,%rax,4), %rdx
	movq	-24(%rbp), %rcx
	movq	-40(%rbp), %rax
	movq	%rcx, %rsi
	movq	%rax, %rdi
	call	memmove@PLT
.L469:
	movq	-8(%rbp), %rax
	leaq	0(,%rax,4), %rdx
	movq	-40(%rbp), %rax
	addq	%rdx, %rax
	leave
	.cfi_def_cfa 7, 8
	ret
	.cfi_endproc
.LFE4072:
	.size	_ZNSt11__copy_moveILb1ELb1ESt26random_access_iterator_tagE8__copy_mIjEEPT_PKS3_S6_S4_, .-_ZNSt11__copy_moveILb1ELb1ESt26random_access_iterator_tagE8__copy_mIjEEPT_PKS3_S6_S4_
	.text
	.type	_Z41__static_initialization_and_destruction_0ii, @function
_Z41__static_initialization_and_destruction_0ii:
.LFB4073:
	.cfi_startproc
	endbr64
	pushq	%rbp
	.cfi_def_cfa_offset 16
	.cfi_offset 6, -16
	movq	%rsp, %rbp
	.cfi_def_cfa_register 6
	subq	$16, %rsp
	movl	%edi, -4(%rbp)
	movl	%esi, -8(%rbp)
	cmpl	$1, -4(%rbp)
	jne	.L473
	cmpl	$65535, -8(%rbp)
	jne	.L473
	leaq	_ZStL8__ioinit(%rip), %rdi
	call	_ZNSt8ios_base4InitC1Ev@PLT
	leaq	__dso_handle(%rip), %rdx
	leaq	_ZStL8__ioinit(%rip), %rsi
	movq	_ZNSt8ios_base4InitD1Ev@GOTPCREL(%rip), %rax
	movq	%rax, %rdi
	call	__cxa_atexit@PLT
.L473:
	nop
	leave
	.cfi_def_cfa 7, 8
	ret
	.cfi_endproc
.LFE4073:
	.size	_Z41__static_initialization_and_destruction_0ii, .-_Z41__static_initialization_and_destruction_0ii
	.type	_GLOBAL__sub_I_main, @function
_GLOBAL__sub_I_main:
.LFB4074:
	.cfi_startproc
	endbr64
	pushq	%rbp
	.cfi_def_cfa_offset 16
	.cfi_offset 6, -16
	movq	%rsp, %rbp
	.cfi_def_cfa_register 6
	movl	$65535, %esi
	movl	$1, %edi
	call	_Z41__static_initialization_and_destruction_0ii
	popq	%rbp
	.cfi_def_cfa 7, 8
	ret
	.cfi_endproc
.LFE4074:
	.size	_GLOBAL__sub_I_main, .-_GLOBAL__sub_I_main
	.section	.init_array,"aw"
	.align 8
	.quad	_GLOBAL__sub_I_main
	.hidden	DW.ref.__gxx_personality_v0
	.weak	DW.ref.__gxx_personality_v0
	.section	.data.rel.local.DW.ref.__gxx_personality_v0,"awG",@progbits,DW.ref.__gxx_personality_v0,comdat
	.align 8
	.type	DW.ref.__gxx_personality_v0, @object
	.size	DW.ref.__gxx_personality_v0, 8
DW.ref.__gxx_personality_v0:
	.quad	__gxx_personality_v0
	.hidden	__dso_handle
	.ident	"GCC: (Ubuntu 9.3.0-17ubuntu1~20.04) 9.3.0"
	.section	.note.GNU-stack,"",@progbits
	.section	.note.gnu.property,"a"
	.align 8
	.long	 1f - 0f
	.long	 4f - 1f
	.long	 5
0:
	.string	 "GNU"
1:
	.align 8
	.long	 0xc0000002
	.long	 3f - 2f
2:
	.long	 0x3
3:
	.align 8
4:
